   1              	 .syntax unified
   2              	 .cpu cortex-m4
   3              	 .eabi_attribute 27,3
   4              	 .fpu fpv4-sp-d16
   5              	 .eabi_attribute 20,1
   6              	 .eabi_attribute 21,1
   7              	 .eabi_attribute 23,3
   8              	 .eabi_attribute 24,1
   9              	 .eabi_attribute 25,1
  10              	 .eabi_attribute 26,1
  11              	 .eabi_attribute 30,6
  12              	 .eabi_attribute 34,1
  13              	 .eabi_attribute 18,4
  14              	 .thumb
  15              	 .file "event_detector.c"
  16              	 .text
  17              	.Ltext0:
  18              	 .cfi_sections .debug_frame
  19              	 .section .text.EVENT_DETECTOR_GetAppVersion,"ax",%progbits
  20              	 .align 2
  21              	 .global EVENT_DETECTOR_GetAppVersion
  22              	 .thumb
  23              	 .thumb_func
  25              	EVENT_DETECTOR_GetAppVersion:
  26              	.LFB144:
  27              	 .file 1 "../Dave/Generated/EVENT_DETECTOR/event_detector.c"
   1:../Dave/Generated/EVENT_DETECTOR/event_detector.c **** /**
   2:../Dave/Generated/EVENT_DETECTOR/event_detector.c ****  * @file event_detector.c
   3:../Dave/Generated/EVENT_DETECTOR/event_detector.c ****  * @date 2015-12-18
   4:../Dave/Generated/EVENT_DETECTOR/event_detector.c ****  *
   5:../Dave/Generated/EVENT_DETECTOR/event_detector.c ****  * NOTE:
   6:../Dave/Generated/EVENT_DETECTOR/event_detector.c ****  * This file is generated by DAVE. Any manual modification done to this file will be lost when the 
   7:../Dave/Generated/EVENT_DETECTOR/event_detector.c ****  *
   8:../Dave/Generated/EVENT_DETECTOR/event_detector.c ****  * @cond
   9:../Dave/Generated/EVENT_DETECTOR/event_detector.c ****  **************************************************************************************************
  10:../Dave/Generated/EVENT_DETECTOR/event_detector.c ****  * EVENT_DETECTOR v4.0.6 - Configures the properties of ERU_ERS and ERU_ETL peripheral instance.
  11:../Dave/Generated/EVENT_DETECTOR/event_detector.c ****  *
  12:../Dave/Generated/EVENT_DETECTOR/event_detector.c ****  * Copyright (c) 2015, Infineon Technologies AG
  13:../Dave/Generated/EVENT_DETECTOR/event_detector.c ****  * All rights reserved.
  14:../Dave/Generated/EVENT_DETECTOR/event_detector.c ****  *
  15:../Dave/Generated/EVENT_DETECTOR/event_detector.c ****  * Redistribution and use in source and binary forms, with or without modification,are permitted pr
  16:../Dave/Generated/EVENT_DETECTOR/event_detector.c ****  * following conditions are met:
  17:../Dave/Generated/EVENT_DETECTOR/event_detector.c ****  *
  18:../Dave/Generated/EVENT_DETECTOR/event_detector.c ****  *   Redistributions of source code must retain the above copyright notice, this list of conditions
  19:../Dave/Generated/EVENT_DETECTOR/event_detector.c ****  *   disclaimer.
  20:../Dave/Generated/EVENT_DETECTOR/event_detector.c ****  *
  21:../Dave/Generated/EVENT_DETECTOR/event_detector.c ****  *   Redistributions in binary form must reproduce the above copyright notice, this list of conditi
  22:../Dave/Generated/EVENT_DETECTOR/event_detector.c ****  *   following disclaimer in the documentation and/or other materials provided with the distributio
  23:../Dave/Generated/EVENT_DETECTOR/event_detector.c ****  *
  24:../Dave/Generated/EVENT_DETECTOR/event_detector.c ****  *   Neither the name of the copyright holders nor the names of its contributors may be used to end
  25:../Dave/Generated/EVENT_DETECTOR/event_detector.c ****  *   products derived from this software without specific prior written permission.
  26:../Dave/Generated/EVENT_DETECTOR/event_detector.c ****  *
  27:../Dave/Generated/EVENT_DETECTOR/event_detector.c ****  * THIS SOFTWARE IS PROVIDED BY THE COPYRIGHT HOLDERS AND CONTRIBUTORS "AS IS" AND ANY EXPRESS OR I
  28:../Dave/Generated/EVENT_DETECTOR/event_detector.c ****  * INCLUDING, BUT NOT LIMITED TO, THE IMPLIED WARRANTIES OF MERCHANTABILITY AND FITNESS FOR A PARTI
  29:../Dave/Generated/EVENT_DETECTOR/event_detector.c ****  * DISCLAIMED. IN NO EVENT SHALL THE COPYRIGHT HOLDER OR CONTRIBUTORS BE LIABLE  FOR ANY DIRECT, IN
  30:../Dave/Generated/EVENT_DETECTOR/event_detector.c ****  * SPECIAL, EXEMPLARY, OR CONSEQUENTIAL DAMAGES (INCLUDING, BUT NOT LIMITED TO, PROCUREMENT OF SUBS
  31:../Dave/Generated/EVENT_DETECTOR/event_detector.c ****  * SERVICES; LOSS OF USE, DATA, OR PROFITS; OR BUSINESS INTERRUPTION) HOWEVER CAUSED AND ON ANY THE
  32:../Dave/Generated/EVENT_DETECTOR/event_detector.c ****  * WHETHER IN CONTRACT, STRICT LIABILITY,OR TORT (INCLUDING NEGLIGENCE OR OTHERWISE) ARISING IN ANY
  33:../Dave/Generated/EVENT_DETECTOR/event_detector.c ****  * USE OF THIS SOFTWARE, EVEN IF ADVISED OF THE POSSIBILITY OF SUCH DAMAGE.
  34:../Dave/Generated/EVENT_DETECTOR/event_detector.c ****  *
  35:../Dave/Generated/EVENT_DETECTOR/event_detector.c ****  * To improve the quality of the software, users are encouraged to share modifications, enhancement
  36:../Dave/Generated/EVENT_DETECTOR/event_detector.c ****  * with Infineon Technologies AG (dave@infineon.com).
  37:../Dave/Generated/EVENT_DETECTOR/event_detector.c ****  **************************************************************************************************
  38:../Dave/Generated/EVENT_DETECTOR/event_detector.c ****  *
  39:../Dave/Generated/EVENT_DETECTOR/event_detector.c ****  * Change History
  40:../Dave/Generated/EVENT_DETECTOR/event_detector.c ****  * --------------
  41:../Dave/Generated/EVENT_DETECTOR/event_detector.c ****  *
  42:../Dave/Generated/EVENT_DETECTOR/event_detector.c ****  * 2015-02-16:
  43:../Dave/Generated/EVENT_DETECTOR/event_detector.c ****  *     - Initial version<br>
  44:../Dave/Generated/EVENT_DETECTOR/event_detector.c ****  *
  45:../Dave/Generated/EVENT_DETECTOR/event_detector.c ****  * 2015-05-08:
  46:../Dave/Generated/EVENT_DETECTOR/event_detector.c ****  *     - Guidelines updated<br>
  47:../Dave/Generated/EVENT_DETECTOR/event_detector.c ****  *
  48:../Dave/Generated/EVENT_DETECTOR/event_detector.c ****  * @endcond
  49:../Dave/Generated/EVENT_DETECTOR/event_detector.c ****  *
  50:../Dave/Generated/EVENT_DETECTOR/event_detector.c ****  */
  51:../Dave/Generated/EVENT_DETECTOR/event_detector.c **** /**************************************************************************************************
  52:../Dave/Generated/EVENT_DETECTOR/event_detector.c ****  * HEADER FILES
  53:../Dave/Generated/EVENT_DETECTOR/event_detector.c ****  **************************************************************************************************
  54:../Dave/Generated/EVENT_DETECTOR/event_detector.c **** #include "event_detector.h"
  55:../Dave/Generated/EVENT_DETECTOR/event_detector.c **** 
  56:../Dave/Generated/EVENT_DETECTOR/event_detector.c **** /**************************************************************************************************
  57:../Dave/Generated/EVENT_DETECTOR/event_detector.c ****  * MACROS
  58:../Dave/Generated/EVENT_DETECTOR/event_detector.c ****  **************************************************************************************************
  59:../Dave/Generated/EVENT_DETECTOR/event_detector.c **** 
  60:../Dave/Generated/EVENT_DETECTOR/event_detector.c **** /**************************************************************************************************
  61:../Dave/Generated/EVENT_DETECTOR/event_detector.c ****  * LOCAL DATA
  62:../Dave/Generated/EVENT_DETECTOR/event_detector.c ****  **************************************************************************************************
  63:../Dave/Generated/EVENT_DETECTOR/event_detector.c **** 
  64:../Dave/Generated/EVENT_DETECTOR/event_detector.c **** /**************************************************************************************************
  65:../Dave/Generated/EVENT_DETECTOR/event_detector.c ****  * LOCAL ROUTINES
  66:../Dave/Generated/EVENT_DETECTOR/event_detector.c ****  **************************************************************************************************
  67:../Dave/Generated/EVENT_DETECTOR/event_detector.c **** 
  68:../Dave/Generated/EVENT_DETECTOR/event_detector.c ****  /*************************************************************************************************
  69:../Dave/Generated/EVENT_DETECTOR/event_detector.c ****  * API IMPLEMENTATION
  70:../Dave/Generated/EVENT_DETECTOR/event_detector.c ****  **************************************************************************************************
  71:../Dave/Generated/EVENT_DETECTOR/event_detector.c **** /* Returns the version of the EVENT_DETECTOR APP. */
  72:../Dave/Generated/EVENT_DETECTOR/event_detector.c **** DAVE_APP_VERSION_t EVENT_DETECTOR_GetAppVersion(void)
  73:../Dave/Generated/EVENT_DETECTOR/event_detector.c **** {
  28              	 .loc 1 73 0
  29              	 .cfi_startproc
  30              	 
  31              	 
  32              	 
  33 0000 80B4     	 push {r7}
  34              	.LCFI0:
  35              	 .cfi_def_cfa_offset 4
  36              	 .cfi_offset 7,-4
  37 0002 83B0     	 sub sp,sp,#12
  38              	.LCFI1:
  39              	 .cfi_def_cfa_offset 16
  40 0004 00AF     	 add r7,sp,#0
  41              	.LCFI2:
  42              	 .cfi_def_cfa_register 7
  74:../Dave/Generated/EVENT_DETECTOR/event_detector.c ****   DAVE_APP_VERSION_t version;
  75:../Dave/Generated/EVENT_DETECTOR/event_detector.c **** 
  76:../Dave/Generated/EVENT_DETECTOR/event_detector.c ****   version.major = EVENT_DETECTOR_MAJOR_VERSION;
  43              	 .loc 1 76 0
  44 0006 0423     	 movs r3,#4
  45 0008 3B70     	 strb r3,[r7]
  77:../Dave/Generated/EVENT_DETECTOR/event_detector.c ****   version.minor = EVENT_DETECTOR_MINOR_VERSION;
  46              	 .loc 1 77 0
  47 000a 0023     	 movs r3,#0
  48 000c 7B70     	 strb r3,[r7,#1]
  78:../Dave/Generated/EVENT_DETECTOR/event_detector.c ****   version.patch = EVENT_DETECTOR_PATCH_VERSION;
  49              	 .loc 1 78 0
  50 000e 0623     	 movs r3,#6
  51 0010 BB70     	 strb r3,[r7,#2]
  79:../Dave/Generated/EVENT_DETECTOR/event_detector.c **** 
  80:../Dave/Generated/EVENT_DETECTOR/event_detector.c ****   return version;
  52              	 .loc 1 80 0
  53 0012 3B1D     	 adds r3,r7,#4
  54 0014 3A46     	 mov r2,r7
  55 0016 1268     	 ldr r2,[r2]
  56 0018 1146     	 mov r1,r2
  57 001a 1980     	 strh r1,[r3]
  58 001c 0233     	 adds r3,r3,#2
  59 001e 120C     	 lsrs r2,r2,#16
  60 0020 1A70     	 strb r2,[r3]
  61 0022 0023     	 movs r3,#0
  62 0024 3A79     	 ldrb r2,[r7,#4]
  63 0026 62F30703 	 bfi r3,r2,#0,#8
  64 002a 7A79     	 ldrb r2,[r7,#5]
  65 002c 62F30F23 	 bfi r3,r2,#8,#8
  66 0030 BA79     	 ldrb r2,[r7,#6]
  67 0032 62F31743 	 bfi r3,r2,#16,#8
  81:../Dave/Generated/EVENT_DETECTOR/event_detector.c **** }
  68              	 .loc 1 81 0
  69 0036 1846     	 mov r0,r3
  70 0038 0C37     	 adds r7,r7,#12
  71              	.LCFI3:
  72              	 .cfi_def_cfa_offset 4
  73 003a BD46     	 mov sp,r7
  74              	.LCFI4:
  75              	 .cfi_def_cfa_register 13
  76              	 
  77 003c 5DF8047B 	 ldr r7,[sp],#4
  78              	.LCFI5:
  79              	 .cfi_restore 7
  80              	 .cfi_def_cfa_offset 0
  81 0040 7047     	 bx lr
  82              	 .cfi_endproc
  83              	.LFE144:
  85 0042 00BF     	 .section .text.EVENT_DETECTOR_Init,"ax",%progbits
  86              	 .align 2
  87              	 .global EVENT_DETECTOR_Init
  88              	 .thumb
  89              	 .thumb_func
  91              	EVENT_DETECTOR_Init:
  92              	.LFB145:
  82:../Dave/Generated/EVENT_DETECTOR/event_detector.c **** 
  83:../Dave/Generated/EVENT_DETECTOR/event_detector.c **** /*
  84:../Dave/Generated/EVENT_DETECTOR/event_detector.c ****  * This function Initializes a EVENT_DETECTOR APP instances (ERSx+ETLx) based on user configuration
  85:../Dave/Generated/EVENT_DETECTOR/event_detector.c ****  */
  86:../Dave/Generated/EVENT_DETECTOR/event_detector.c **** EVENT_DETECTOR_STATUS_t EVENT_DETECTOR_Init(EVENT_DETECTOR_t *const handle)
  87:../Dave/Generated/EVENT_DETECTOR/event_detector.c **** {
  93              	 .loc 1 87 0
  94              	 .cfi_startproc
  95              	 
  96              	 
  97 0000 80B5     	 push {r7,lr}
  98              	.LCFI6:
  99              	 .cfi_def_cfa_offset 8
 100              	 .cfi_offset 7,-8
 101              	 .cfi_offset 14,-4
 102 0002 82B0     	 sub sp,sp,#8
 103              	.LCFI7:
 104              	 .cfi_def_cfa_offset 16
 105 0004 00AF     	 add r7,sp,#0
 106              	.LCFI8:
 107              	 .cfi_def_cfa_register 7
 108 0006 7860     	 str r0,[r7,#4]
  88:../Dave/Generated/EVENT_DETECTOR/event_detector.c ****   /* Checking for null handle */
  89:../Dave/Generated/EVENT_DETECTOR/event_detector.c ****   XMC_ASSERT("EVENT_DETECTOR_Init:handle NULL" , (handle != NULL));
  90:../Dave/Generated/EVENT_DETECTOR/event_detector.c **** 
  91:../Dave/Generated/EVENT_DETECTOR/event_detector.c ****   /* Checking for initialization state of the instance */
  92:../Dave/Generated/EVENT_DETECTOR/event_detector.c ****   if (false == handle->init_status)
 109              	 .loc 1 92 0
 110 0008 7B68     	 ldr r3,[r7,#4]
 111 000a 1B7B     	 ldrb r3,[r3,#12]
 112 000c 83F00103 	 eor r3,r3,#1
 113 0010 DBB2     	 uxtb r3,r3
 114 0012 002B     	 cmp r3,#0
 115 0014 0DD0     	 beq .L4
  93:../Dave/Generated/EVENT_DETECTOR/event_detector.c ****   {
  94:../Dave/Generated/EVENT_DETECTOR/event_detector.c ****     /* Hardware initialization based on UI */
  95:../Dave/Generated/EVENT_DETECTOR/event_detector.c ****     XMC_ERU_ETL_Init(handle->eru, handle->channel, handle->config);
 116              	 .loc 1 95 0
 117 0016 7B68     	 ldr r3,[r7,#4]
 118 0018 1968     	 ldr r1,[r3]
 119 001a 7B68     	 ldr r3,[r7,#4]
 120 001c 1A79     	 ldrb r2,[r3,#4]
 121 001e 7B68     	 ldr r3,[r7,#4]
 122 0020 9B68     	 ldr r3,[r3,#8]
 123 0022 0846     	 mov r0,r1
 124 0024 1146     	 mov r1,r2
 125 0026 1A46     	 mov r2,r3
 126 0028 FFF7FEFF 	 bl XMC_ERU_ETL_Init
  96:../Dave/Generated/EVENT_DETECTOR/event_detector.c ****     /* Update the init status of the instance */
  97:../Dave/Generated/EVENT_DETECTOR/event_detector.c ****     handle->init_status = true;
 127              	 .loc 1 97 0
 128 002c 7B68     	 ldr r3,[r7,#4]
 129 002e 0122     	 movs r2,#1
 130 0030 1A73     	 strb r2,[r3,#12]
 131              	.L4:
  98:../Dave/Generated/EVENT_DETECTOR/event_detector.c ****   }
  99:../Dave/Generated/EVENT_DETECTOR/event_detector.c ****   
 100:../Dave/Generated/EVENT_DETECTOR/event_detector.c ****   return EVENT_DETECTOR_STATUS_SUCCESS;
 132              	 .loc 1 100 0
 133 0032 0023     	 movs r3,#0
 101:../Dave/Generated/EVENT_DETECTOR/event_detector.c **** }
 134              	 .loc 1 101 0
 135 0034 1846     	 mov r0,r3
 136 0036 0837     	 adds r7,r7,#8
 137              	.LCFI9:
 138              	 .cfi_def_cfa_offset 8
 139 0038 BD46     	 mov sp,r7
 140              	.LCFI10:
 141              	 .cfi_def_cfa_register 13
 142              	 
 143 003a 80BD     	 pop {r7,pc}
 144              	 .cfi_endproc
 145              	.LFE145:
 147              	 .text
 148              	.Letext0:
 149              	 .file 2 "c:\\tools\\dave-ide-4.4.2-64bit\\eclipse\\arm-gcc-49\\arm-none-eabi\\include\\machine\\_default_types.h"
 150              	 .file 3 "c:\\tools\\dave-ide-4.4.2-64bit\\eclipse\\arm-gcc-49\\arm-none-eabi\\include\\stdint.h"
 151              	 .file 4 "C:/Users/Admin/DaveWorkspaces/XMC4300_Motor_Controller/Libraries/XMCLib/inc/xmc_eru.h"
 152              	 .file 5 "C:/Users/Admin/DaveWorkspaces/XMC4300_Motor_Controller/Dave/Generated/DAVE_Common.h"
 153              	 .file 6 "../Dave/Generated/EVENT_DETECTOR/event_detector.h"
 154              	 .file 7 "C:/Users/Admin/DaveWorkspaces/XMC4300_Motor_Controller/Libraries/CMSIS/Include/cmsis_gcc.h"
 155              	 .file 8 "C:/Users/Admin/DaveWorkspaces/XMC4300_Motor_Controller/Libraries/CMSIS/Include/core_cm4.h"