   1              	 .syntax unified
   2              	 .cpu cortex-m4
   3              	 .eabi_attribute 27,3
   4              	 .fpu fpv4-sp-d16
   5              	 .eabi_attribute 20,1
   6              	 .eabi_attribute 21,1
   7              	 .eabi_attribute 23,3
   8              	 .eabi_attribute 24,1
   9              	 .eabi_attribute 25,1
  10              	 .eabi_attribute 26,1
  11              	 .eabi_attribute 30,6
  12              	 .eabi_attribute 34,1
  13              	 .eabi_attribute 18,4
  14              	 .thumb
  15              	 .file "event_generator.c"
  16              	 .text
  17              	.Ltext0:
  18              	 .cfi_sections .debug_frame
  19              	 .section .text.EVENT_GENERATOR_GetAppVersion,"ax",%progbits
  20              	 .align 2
  21              	 .global EVENT_GENERATOR_GetAppVersion
  22              	 .thumb
  23              	 .thumb_func
  25              	EVENT_GENERATOR_GetAppVersion:
  26              	.LFB182:
  27              	 .file 1 "../Dave/Generated/EVENT_GENERATOR/event_generator.c"
   1:../Dave/Generated/EVENT_GENERATOR/event_generator.c **** /**
   2:../Dave/Generated/EVENT_GENERATOR/event_generator.c ****  * @file event_generator.c
   3:../Dave/Generated/EVENT_GENERATOR/event_generator.c ****  * @date 2015-12-18
   4:../Dave/Generated/EVENT_GENERATOR/event_generator.c ****  *
   5:../Dave/Generated/EVENT_GENERATOR/event_generator.c ****  * NOTE:
   6:../Dave/Generated/EVENT_GENERATOR/event_generator.c ****  * This file is generated by DAVE. Any manual modification done to this file will be lost when the 
   7:../Dave/Generated/EVENT_GENERATOR/event_generator.c ****  *
   8:../Dave/Generated/EVENT_GENERATOR/event_generator.c ****  * @cond
   9:../Dave/Generated/EVENT_GENERATOR/event_generator.c ****  **************************************************************************************************
  10:../Dave/Generated/EVENT_GENERATOR/event_generator.c ****  * EVENT_GENERATOR v4.1.14 - Configures the properties of ERU_OGU peripheral instance
  11:../Dave/Generated/EVENT_GENERATOR/event_generator.c ****  *
  12:../Dave/Generated/EVENT_GENERATOR/event_generator.c ****  * Copyright (c) 2015, Infineon Technologies AG
  13:../Dave/Generated/EVENT_GENERATOR/event_generator.c ****  * All rights reserved.
  14:../Dave/Generated/EVENT_GENERATOR/event_generator.c ****  *
  15:../Dave/Generated/EVENT_GENERATOR/event_generator.c ****  * Redistribution and use in source and binary forms, with or without modification,are permitted pr
  16:../Dave/Generated/EVENT_GENERATOR/event_generator.c ****  * following conditions are met:
  17:../Dave/Generated/EVENT_GENERATOR/event_generator.c ****  *
  18:../Dave/Generated/EVENT_GENERATOR/event_generator.c ****  *   Redistributions of source code must retain the above copyright notice, this list of conditions
  19:../Dave/Generated/EVENT_GENERATOR/event_generator.c ****  *   disclaimer.
  20:../Dave/Generated/EVENT_GENERATOR/event_generator.c ****  *
  21:../Dave/Generated/EVENT_GENERATOR/event_generator.c ****  *   Redistributions in binary form must reproduce the above copyright notice, this list of conditi
  22:../Dave/Generated/EVENT_GENERATOR/event_generator.c ****  *   following disclaimer in the documentation and/or other materials provided with the distributio
  23:../Dave/Generated/EVENT_GENERATOR/event_generator.c ****  *
  24:../Dave/Generated/EVENT_GENERATOR/event_generator.c ****  *   Neither the name of the copyright holders nor the names of its contributors may be used to end
  25:../Dave/Generated/EVENT_GENERATOR/event_generator.c ****  *   products derived from this software without specific prior written permission.
  26:../Dave/Generated/EVENT_GENERATOR/event_generator.c ****  *
  27:../Dave/Generated/EVENT_GENERATOR/event_generator.c ****  * THIS SOFTWARE IS PROVIDED BY THE COPYRIGHT HOLDERS AND CONTRIBUTORS "AS IS" AND ANY EXPRESS OR I
  28:../Dave/Generated/EVENT_GENERATOR/event_generator.c ****  * INCLUDING, BUT NOT LIMITED TO, THE IMPLIED WARRANTIES OF MERCHANTABILITY AND FITNESS FOR A PARTI
  29:../Dave/Generated/EVENT_GENERATOR/event_generator.c ****  * DISCLAIMED. IN NO EVENT SHALL THE COPYRIGHT HOLDER OR CONTRIBUTORS BE LIABLE  FOR ANY DIRECT, IN
  30:../Dave/Generated/EVENT_GENERATOR/event_generator.c ****  * SPECIAL, EXEMPLARY, OR CONSEQUENTIAL DAMAGES (INCLUDING, BUT NOT LIMITED TO, PROCUREMENT OF SUBS
  31:../Dave/Generated/EVENT_GENERATOR/event_generator.c ****  * SERVICES; LOSS OF USE, DATA, OR PROFITS; OR BUSINESS INTERRUPTION) HOWEVER CAUSED AND ON ANY THE
  32:../Dave/Generated/EVENT_GENERATOR/event_generator.c ****  * WHETHER IN CONTRACT, STRICT LIABILITY,OR TORT (INCLUDING NEGLIGENCE OR OTHERWISE) ARISING IN ANY
  33:../Dave/Generated/EVENT_GENERATOR/event_generator.c ****  * USE OF THIS SOFTWARE, EVEN IF ADVISED OF THE POSSIBILITY OF SUCH DAMAGE.
  34:../Dave/Generated/EVENT_GENERATOR/event_generator.c ****  *
  35:../Dave/Generated/EVENT_GENERATOR/event_generator.c ****  * To improve the quality of the software, users are encouraged to share modifications, enhancement
  36:../Dave/Generated/EVENT_GENERATOR/event_generator.c ****  * with Infineon Technologies AG (dave@infineon.com).
  37:../Dave/Generated/EVENT_GENERATOR/event_generator.c ****  **************************************************************************************************
  38:../Dave/Generated/EVENT_GENERATOR/event_generator.c ****  *
  39:../Dave/Generated/EVENT_GENERATOR/event_generator.c ****  * Change History
  40:../Dave/Generated/EVENT_GENERATOR/event_generator.c ****  * --------------
  41:../Dave/Generated/EVENT_GENERATOR/event_generator.c ****  *
  42:../Dave/Generated/EVENT_GENERATOR/event_generator.c ****  * 2015-02-16:
  43:../Dave/Generated/EVENT_GENERATOR/event_generator.c ****  *     - Initial version<br>
  44:../Dave/Generated/EVENT_GENERATOR/event_generator.c ****  *
  45:../Dave/Generated/EVENT_GENERATOR/event_generator.c ****  * 2015-05-08:
  46:../Dave/Generated/EVENT_GENERATOR/event_generator.c ****  *     - Guidelines updated<br>
  47:../Dave/Generated/EVENT_GENERATOR/event_generator.c ****  *
  48:../Dave/Generated/EVENT_GENERATOR/event_generator.c ****  * 2015-06-29:
  49:../Dave/Generated/EVENT_GENERATOR/event_generator.c ****  *     - Added XMC_SCU_INTERRUPT_EnableNmiRequest() call during APP initialization, to enable the p
  50:../Dave/Generated/EVENT_GENERATOR/event_generator.c ****  *       eru event as NMI.<br>
  51:../Dave/Generated/EVENT_GENERATOR/event_generator.c ****  *
  52:../Dave/Generated/EVENT_GENERATOR/event_generator.c ****  * 2015-09-30:
  53:../Dave/Generated/EVENT_GENERATOR/event_generator.c ****  *     - EVENT_GENERATOR_NMI_ENABLED is changed as  EVENT_GENERATOR_NMI_SUPPORTED.
  54:../Dave/Generated/EVENT_GENERATOR/event_generator.c ****  *
  55:../Dave/Generated/EVENT_GENERATOR/event_generator.c ****  * @endcond
  56:../Dave/Generated/EVENT_GENERATOR/event_generator.c ****  *
  57:../Dave/Generated/EVENT_GENERATOR/event_generator.c ****  */
  58:../Dave/Generated/EVENT_GENERATOR/event_generator.c **** /**************************************************************************************************
  59:../Dave/Generated/EVENT_GENERATOR/event_generator.c ****  * HEADER FILES
  60:../Dave/Generated/EVENT_GENERATOR/event_generator.c **** ***************************************************************************************************
  61:../Dave/Generated/EVENT_GENERATOR/event_generator.c **** #include "event_generator.h"
  62:../Dave/Generated/EVENT_GENERATOR/event_generator.c **** 
  63:../Dave/Generated/EVENT_GENERATOR/event_generator.c **** /**************************************************************************************************
  64:../Dave/Generated/EVENT_GENERATOR/event_generator.c ****  * MACROS
  65:../Dave/Generated/EVENT_GENERATOR/event_generator.c ****  **************************************************************************************************
  66:../Dave/Generated/EVENT_GENERATOR/event_generator.c **** /**************************************************************************************************
  67:../Dave/Generated/EVENT_GENERATOR/event_generator.c ****  * LOCAL DATA
  68:../Dave/Generated/EVENT_GENERATOR/event_generator.c ****  **************************************************************************************************
  69:../Dave/Generated/EVENT_GENERATOR/event_generator.c **** 
  70:../Dave/Generated/EVENT_GENERATOR/event_generator.c **** /**************************************************************************************************
  71:../Dave/Generated/EVENT_GENERATOR/event_generator.c ****  * LOCAL ROUTINES
  72:../Dave/Generated/EVENT_GENERATOR/event_generator.c ****  **************************************************************************************************
  73:../Dave/Generated/EVENT_GENERATOR/event_generator.c **** 
  74:../Dave/Generated/EVENT_GENERATOR/event_generator.c ****  /*************************************************************************************************
  75:../Dave/Generated/EVENT_GENERATOR/event_generator.c ****  * API IMPLEMENTATION
  76:../Dave/Generated/EVENT_GENERATOR/event_generator.c ****  **************************************************************************************************
  77:../Dave/Generated/EVENT_GENERATOR/event_generator.c **** /* Returns the version of the EVENT_GENERATOR APP. */
  78:../Dave/Generated/EVENT_GENERATOR/event_generator.c **** DAVE_APP_VERSION_t EVENT_GENERATOR_GetAppVersion(void)
  79:../Dave/Generated/EVENT_GENERATOR/event_generator.c **** {
  28              	 .loc 1 79 0
  29              	 .cfi_startproc
  30              	 
  31              	 
  32              	 
  33 0000 80B4     	 push {r7}
  34              	.LCFI0:
  35              	 .cfi_def_cfa_offset 4
  36              	 .cfi_offset 7,-4
  37 0002 83B0     	 sub sp,sp,#12
  38              	.LCFI1:
  39              	 .cfi_def_cfa_offset 16
  40 0004 00AF     	 add r7,sp,#0
  41              	.LCFI2:
  42              	 .cfi_def_cfa_register 7
  80:../Dave/Generated/EVENT_GENERATOR/event_generator.c ****   DAVE_APP_VERSION_t version;
  81:../Dave/Generated/EVENT_GENERATOR/event_generator.c **** 
  82:../Dave/Generated/EVENT_GENERATOR/event_generator.c ****   version.major = EVENT_GENERATOR_MAJOR_VERSION;
  43              	 .loc 1 82 0
  44 0006 0423     	 movs r3,#4
  45 0008 3B70     	 strb r3,[r7]
  83:../Dave/Generated/EVENT_GENERATOR/event_generator.c ****   version.minor = EVENT_GENERATOR_MINOR_VERSION;
  46              	 .loc 1 83 0
  47 000a 0123     	 movs r3,#1
  48 000c 7B70     	 strb r3,[r7,#1]
  84:../Dave/Generated/EVENT_GENERATOR/event_generator.c ****   version.patch = EVENT_GENERATOR_PATCH_VERSION;
  49              	 .loc 1 84 0
  50 000e 0E23     	 movs r3,#14
  51 0010 BB70     	 strb r3,[r7,#2]
  85:../Dave/Generated/EVENT_GENERATOR/event_generator.c **** 
  86:../Dave/Generated/EVENT_GENERATOR/event_generator.c ****   return version;
  52              	 .loc 1 86 0
  53 0012 3B1D     	 adds r3,r7,#4
  54 0014 3A46     	 mov r2,r7
  55 0016 1268     	 ldr r2,[r2]
  56 0018 1146     	 mov r1,r2
  57 001a 1980     	 strh r1,[r3]
  58 001c 0233     	 adds r3,r3,#2
  59 001e 120C     	 lsrs r2,r2,#16
  60 0020 1A70     	 strb r2,[r3]
  61 0022 0023     	 movs r3,#0
  62 0024 3A79     	 ldrb r2,[r7,#4]
  63 0026 62F30703 	 bfi r3,r2,#0,#8
  64 002a 7A79     	 ldrb r2,[r7,#5]
  65 002c 62F30F23 	 bfi r3,r2,#8,#8
  66 0030 BA79     	 ldrb r2,[r7,#6]
  67 0032 62F31743 	 bfi r3,r2,#16,#8
  87:../Dave/Generated/EVENT_GENERATOR/event_generator.c **** }
  68              	 .loc 1 87 0
  69 0036 1846     	 mov r0,r3
  70 0038 0C37     	 adds r7,r7,#12
  71              	.LCFI3:
  72              	 .cfi_def_cfa_offset 4
  73 003a BD46     	 mov sp,r7
  74              	.LCFI4:
  75              	 .cfi_def_cfa_register 13
  76              	 
  77 003c 5DF8047B 	 ldr r7,[sp],#4
  78              	.LCFI5:
  79              	 .cfi_restore 7
  80              	 .cfi_def_cfa_offset 0
  81 0040 7047     	 bx lr
  82              	 .cfi_endproc
  83              	.LFE182:
  85 0042 00BF     	 .section .text.EVENT_GENERATOR_Init,"ax",%progbits
  86              	 .align 2
  87              	 .global EVENT_GENERATOR_Init
  88              	 .thumb
  89              	 .thumb_func
  91              	EVENT_GENERATOR_Init:
  92              	.LFB183:
  88:../Dave/Generated/EVENT_GENERATOR/event_generator.c **** 
  89:../Dave/Generated/EVENT_GENERATOR/event_generator.c **** /*
  90:../Dave/Generated/EVENT_GENERATOR/event_generator.c ****  * This function Initializes a EVENT_GENERATOR APP instances based on user configuration.
  91:../Dave/Generated/EVENT_GENERATOR/event_generator.c ****  */
  92:../Dave/Generated/EVENT_GENERATOR/event_generator.c **** EVENT_GENERATOR_STATUS_t EVENT_GENERATOR_Init(EVENT_GENERATOR_t *const handle)
  93:../Dave/Generated/EVENT_GENERATOR/event_generator.c **** {
  93              	 .loc 1 93 0
  94              	 .cfi_startproc
  95              	 
  96              	 
  97 0000 80B5     	 push {r7,lr}
  98              	.LCFI6:
  99              	 .cfi_def_cfa_offset 8
 100              	 .cfi_offset 7,-8
 101              	 .cfi_offset 14,-4
 102 0002 82B0     	 sub sp,sp,#8
 103              	.LCFI7:
 104              	 .cfi_def_cfa_offset 16
 105 0004 00AF     	 add r7,sp,#0
 106              	.LCFI8:
 107              	 .cfi_def_cfa_register 7
 108 0006 7860     	 str r0,[r7,#4]
  94:../Dave/Generated/EVENT_GENERATOR/event_generator.c ****   /* Checking for null handle */
  95:../Dave/Generated/EVENT_GENERATOR/event_generator.c ****   XMC_ASSERT("EVENT_GENERATOR_Init:handle NULL" , (handle != NULL));
  96:../Dave/Generated/EVENT_GENERATOR/event_generator.c ****   
  97:../Dave/Generated/EVENT_GENERATOR/event_generator.c ****   /* Checking for initialization state of the instance */
  98:../Dave/Generated/EVENT_GENERATOR/event_generator.c ****   if (false == handle->init_status)
 109              	 .loc 1 98 0
 110 0008 7B68     	 ldr r3,[r7,#4]
 111 000a 5B7B     	 ldrb r3,[r3,#13]
 112 000c 83F00103 	 eor r3,r3,#1
 113 0010 DBB2     	 uxtb r3,r3
 114 0012 002B     	 cmp r3,#0
 115 0014 12D0     	 beq .L4
  99:../Dave/Generated/EVENT_GENERATOR/event_generator.c ****   {
 100:../Dave/Generated/EVENT_GENERATOR/event_generator.c ****     /* Hardware initialization based on UI */
 101:../Dave/Generated/EVENT_GENERATOR/event_generator.c ****     XMC_ERU_OGU_Init(handle->eru, handle->channel, handle->config);
 116              	 .loc 1 101 0
 117 0016 7B68     	 ldr r3,[r7,#4]
 118 0018 1968     	 ldr r1,[r3]
 119 001a 7B68     	 ldr r3,[r7,#4]
 120 001c 1A7B     	 ldrb r2,[r3,#12]
 121 001e 7B68     	 ldr r3,[r7,#4]
 122 0020 5B68     	 ldr r3,[r3,#4]
 123 0022 0846     	 mov r0,r1
 124 0024 1146     	 mov r1,r2
 125 0026 1A46     	 mov r2,r3
 126 0028 FFF7FEFF 	 bl XMC_ERU_OGU_Init
 102:../Dave/Generated/EVENT_GENERATOR/event_generator.c ****     #if (EVENT_GENERATOR_NMI_SUPPORTED == 1U)
 103:../Dave/Generated/EVENT_GENERATOR/event_generator.c ****     /* Promote the eru event as NMI, Applicable only for XMC4000 devices */
 104:../Dave/Generated/EVENT_GENERATOR/event_generator.c ****     XMC_SCU_INTERRUPT_EnableNmiRequest(handle->nmi_eru_msk);
 127              	 .loc 1 104 0
 128 002c 7B68     	 ldr r3,[r7,#4]
 129 002e 9B68     	 ldr r3,[r3,#8]
 130 0030 1846     	 mov r0,r3
 131 0032 FFF7FEFF 	 bl XMC_SCU_INTERRUPT_EnableNmiRequest
 105:../Dave/Generated/EVENT_GENERATOR/event_generator.c ****     #endif
 106:../Dave/Generated/EVENT_GENERATOR/event_generator.c ****     /* Update the init status of the instance */
 107:../Dave/Generated/EVENT_GENERATOR/event_generator.c ****     handle->init_status = true;
 132              	 .loc 1 107 0
 133 0036 7B68     	 ldr r3,[r7,#4]
 134 0038 0122     	 movs r2,#1
 135 003a 5A73     	 strb r2,[r3,#13]
 136              	.L4:
 108:../Dave/Generated/EVENT_GENERATOR/event_generator.c ****   }
 109:../Dave/Generated/EVENT_GENERATOR/event_generator.c ****   
 110:../Dave/Generated/EVENT_GENERATOR/event_generator.c ****   return EVENT_GENERATOR_STATUS_SUCCESS;
 137              	 .loc 1 110 0
 138 003c 0023     	 movs r3,#0
 111:../Dave/Generated/EVENT_GENERATOR/event_generator.c **** }
 139              	 .loc 1 111 0
 140 003e 1846     	 mov r0,r3
 141 0040 0837     	 adds r7,r7,#8
 142              	.LCFI9:
 143              	 .cfi_def_cfa_offset 8
 144 0042 BD46     	 mov sp,r7
 145              	.LCFI10:
 146              	 .cfi_def_cfa_register 13
 147              	 
 148 0044 80BD     	 pop {r7,pc}
 149              	 .cfi_endproc
 150              	.LFE183:
 152 0046 00BF     	 .text
 153              	.Letext0:
 154              	 .file 2 "c:\\tools\\dave-ide-4.4.2-64bit\\eclipse\\arm-gcc-49\\arm-none-eabi\\include\\machine\\_default_types.h"
 155              	 .file 3 "c:\\tools\\dave-ide-4.4.2-64bit\\eclipse\\arm-gcc-49\\arm-none-eabi\\include\\stdint.h"
 156              	 .file 4 "C:/Users/Admin/DaveWorkspaces/XMC4300_PWMTest/Libraries/XMCLib/inc/xmc_eru.h"
 157              	 .file 5 "C:/Users/Admin/DaveWorkspaces/XMC4300_PWMTest/Dave/Generated/DAVE_Common.h"
 158              	 .file 6 "../Dave/Generated/EVENT_GENERATOR/event_generator.h"
 159              	 .file 7 "C:/Users/Admin/DaveWorkspaces/XMC4300_PWMTest/Libraries/CMSIS/Include/cmsis_gcc.h"
 160              	 .file 8 "C:/Users/Admin/DaveWorkspaces/XMC4300_PWMTest/Libraries/CMSIS/Include/core_cm4.h"
 161              	 .file 9 "C:/Users/Admin/DaveWorkspaces/XMC4300_PWMTest/Libraries/CMSIS/Infineon/XMC4300_series/Include/system_XMC4300.h"