   1              	 .syntax unified
   2              	 .cpu cortex-m4
   3              	 .eabi_attribute 27,3
   4              	 .fpu fpv4-sp-d16
   5              	 .eabi_attribute 20,1
   6              	 .eabi_attribute 21,1
   7              	 .eabi_attribute 23,3
   8              	 .eabi_attribute 24,1
   9              	 .eabi_attribute 25,1
  10              	 .eabi_attribute 26,1
  11              	 .eabi_attribute 30,6
  12              	 .eabi_attribute 34,1
  13              	 .eabi_attribute 18,4
  14              	 .thumb
  15              	 .file "xmc_dac.c"
  16              	 .text
  17              	.Ltext0:
  18              	 .cfi_sections .debug_frame
  19              	 .section .text.XMC_DAC_CH_EnableOutput,"ax",%progbits
  20              	 .align 2
  21              	 .thumb
  22              	 .thumb_func
  24              	XMC_DAC_CH_EnableOutput:
  25              	.LFB140:
  26              	 .file 1 "C:/Users/Admin/DaveWorkspaces/XMC4300_PWMTest/Libraries/XMCLib/inc/xmc_dac.h"
   1:C:/Users/Admin/DaveWorkspaces/XMC4300_PWMTest/Libraries/XMCLib/inc\xmc_dac.h **** /**
   2:C:/Users/Admin/DaveWorkspaces/XMC4300_PWMTest/Libraries/XMCLib/inc\xmc_dac.h ****  * @file xmc_dac.h
   3:C:/Users/Admin/DaveWorkspaces/XMC4300_PWMTest/Libraries/XMCLib/inc\xmc_dac.h ****  * @date 2015-08-31
   4:C:/Users/Admin/DaveWorkspaces/XMC4300_PWMTest/Libraries/XMCLib/inc\xmc_dac.h ****  *
   5:C:/Users/Admin/DaveWorkspaces/XMC4300_PWMTest/Libraries/XMCLib/inc\xmc_dac.h ****  * @cond
   6:C:/Users/Admin/DaveWorkspaces/XMC4300_PWMTest/Libraries/XMCLib/inc\xmc_dac.h ****  **********************************************************************************
   7:C:/Users/Admin/DaveWorkspaces/XMC4300_PWMTest/Libraries/XMCLib/inc\xmc_dac.h ****  * XMClib v2.1.24 - XMC Peripheral Driver Library 
   8:C:/Users/Admin/DaveWorkspaces/XMC4300_PWMTest/Libraries/XMCLib/inc\xmc_dac.h ****  *
   9:C:/Users/Admin/DaveWorkspaces/XMC4300_PWMTest/Libraries/XMCLib/inc\xmc_dac.h ****  * Copyright (c) 2015-2019, Infineon Technologies AG
  10:C:/Users/Admin/DaveWorkspaces/XMC4300_PWMTest/Libraries/XMCLib/inc\xmc_dac.h ****  * All rights reserved.                        
  11:C:/Users/Admin/DaveWorkspaces/XMC4300_PWMTest/Libraries/XMCLib/inc\xmc_dac.h ****  *                                             
  12:C:/Users/Admin/DaveWorkspaces/XMC4300_PWMTest/Libraries/XMCLib/inc\xmc_dac.h ****  * Redistribution and use in source and binary forms, with or without           
  13:C:/Users/Admin/DaveWorkspaces/XMC4300_PWMTest/Libraries/XMCLib/inc\xmc_dac.h ****  * modification,are permitted provided that the following conditions are met:   
  14:C:/Users/Admin/DaveWorkspaces/XMC4300_PWMTest/Libraries/XMCLib/inc\xmc_dac.h ****  *                                                                              
  15:C:/Users/Admin/DaveWorkspaces/XMC4300_PWMTest/Libraries/XMCLib/inc\xmc_dac.h ****  *   Redistributions of source code must retain the above copyright notice,      
  16:C:/Users/Admin/DaveWorkspaces/XMC4300_PWMTest/Libraries/XMCLib/inc\xmc_dac.h ****  *   this list of conditions and the following disclaimer.                        
  17:C:/Users/Admin/DaveWorkspaces/XMC4300_PWMTest/Libraries/XMCLib/inc\xmc_dac.h ****  * 
  18:C:/Users/Admin/DaveWorkspaces/XMC4300_PWMTest/Libraries/XMCLib/inc\xmc_dac.h ****  *   Redistributions in binary form must reproduce the above copyright notice,   
  19:C:/Users/Admin/DaveWorkspaces/XMC4300_PWMTest/Libraries/XMCLib/inc\xmc_dac.h ****  *   this list of conditions and the following disclaimer in the documentation    
  20:C:/Users/Admin/DaveWorkspaces/XMC4300_PWMTest/Libraries/XMCLib/inc\xmc_dac.h ****  *   and/or other materials provided with the distribution.                       
  21:C:/Users/Admin/DaveWorkspaces/XMC4300_PWMTest/Libraries/XMCLib/inc\xmc_dac.h ****  * 
  22:C:/Users/Admin/DaveWorkspaces/XMC4300_PWMTest/Libraries/XMCLib/inc\xmc_dac.h ****  *   Neither the name of the copyright holders nor the names of its contributors 
  23:C:/Users/Admin/DaveWorkspaces/XMC4300_PWMTest/Libraries/XMCLib/inc\xmc_dac.h ****  *   may be used to endorse or promote products derived from this software without
  24:C:/Users/Admin/DaveWorkspaces/XMC4300_PWMTest/Libraries/XMCLib/inc\xmc_dac.h ****  *   specific prior written permission.                                           
  25:C:/Users/Admin/DaveWorkspaces/XMC4300_PWMTest/Libraries/XMCLib/inc\xmc_dac.h ****  *                                                                              
  26:C:/Users/Admin/DaveWorkspaces/XMC4300_PWMTest/Libraries/XMCLib/inc\xmc_dac.h ****  * THIS SOFTWARE IS PROVIDED BY THE COPYRIGHT HOLDERS AND CONTRIBUTORS "AS IS"  
  27:C:/Users/Admin/DaveWorkspaces/XMC4300_PWMTest/Libraries/XMCLib/inc\xmc_dac.h ****  * AND ANY EXPRESS OR IMPLIED WARRANTIES, INCLUDING, BUT NOT LIMITED TO, THE    
  28:C:/Users/Admin/DaveWorkspaces/XMC4300_PWMTest/Libraries/XMCLib/inc\xmc_dac.h ****  * IMPLIED WARRANTIES OF MERCHANTABILITY AND FITNESS FOR A PARTICULAR PURPOSE   
  29:C:/Users/Admin/DaveWorkspaces/XMC4300_PWMTest/Libraries/XMCLib/inc\xmc_dac.h ****  * ARE  DISCLAIMED. IN NO EVENT SHALL THE COPYRIGHT HOLDER OR CONTRIBUTORS BE   
  30:C:/Users/Admin/DaveWorkspaces/XMC4300_PWMTest/Libraries/XMCLib/inc\xmc_dac.h ****  * LIABLE  FOR ANY DIRECT, INDIRECT, INCIDENTAL, SPECIAL, EXEMPLARY, OR         
  31:C:/Users/Admin/DaveWorkspaces/XMC4300_PWMTest/Libraries/XMCLib/inc\xmc_dac.h ****  * CONSEQUENTIAL DAMAGES (INCLUDING, BUT NOT LIMITED TO, PROCUREMENT OF         
  32:C:/Users/Admin/DaveWorkspaces/XMC4300_PWMTest/Libraries/XMCLib/inc\xmc_dac.h ****  * SUBSTITUTE GOODS OR  SERVICES; LOSS OF USE, DATA, OR PROFITS; OR BUSINESS    
  33:C:/Users/Admin/DaveWorkspaces/XMC4300_PWMTest/Libraries/XMCLib/inc\xmc_dac.h ****  * INTERRUPTION) HOWEVER CAUSED AND ON ANY THEORY OF LIABILITY, WHETHER IN      
  34:C:/Users/Admin/DaveWorkspaces/XMC4300_PWMTest/Libraries/XMCLib/inc\xmc_dac.h ****  * CONTRACT, STRICT LIABILITY,OR TORT (INCLUDING NEGLIGENCE OR OTHERWISE)       
  35:C:/Users/Admin/DaveWorkspaces/XMC4300_PWMTest/Libraries/XMCLib/inc\xmc_dac.h ****  * ARISING IN ANY WAY OUT OF THE USE OF THIS SOFTWARE, EVEN IF ADVISED OF THE   
  36:C:/Users/Admin/DaveWorkspaces/XMC4300_PWMTest/Libraries/XMCLib/inc\xmc_dac.h ****  * POSSIBILITY OF SUCH DAMAGE.                                                  
  37:C:/Users/Admin/DaveWorkspaces/XMC4300_PWMTest/Libraries/XMCLib/inc\xmc_dac.h ****  *                                                                              
  38:C:/Users/Admin/DaveWorkspaces/XMC4300_PWMTest/Libraries/XMCLib/inc\xmc_dac.h ****  * To improve the quality of the software, users are encouraged to share        
  39:C:/Users/Admin/DaveWorkspaces/XMC4300_PWMTest/Libraries/XMCLib/inc\xmc_dac.h ****  * modifications, enhancements or bug fixes with Infineon Technologies AG       
  40:C:/Users/Admin/DaveWorkspaces/XMC4300_PWMTest/Libraries/XMCLib/inc\xmc_dac.h ****  * dave@infineon.com).                                                          
  41:C:/Users/Admin/DaveWorkspaces/XMC4300_PWMTest/Libraries/XMCLib/inc\xmc_dac.h ****  **********************************************************************************
  42:C:/Users/Admin/DaveWorkspaces/XMC4300_PWMTest/Libraries/XMCLib/inc\xmc_dac.h ****  *
  43:C:/Users/Admin/DaveWorkspaces/XMC4300_PWMTest/Libraries/XMCLib/inc\xmc_dac.h ****  * Change History
  44:C:/Users/Admin/DaveWorkspaces/XMC4300_PWMTest/Libraries/XMCLib/inc\xmc_dac.h ****  * --------------
  45:C:/Users/Admin/DaveWorkspaces/XMC4300_PWMTest/Libraries/XMCLib/inc\xmc_dac.h ****  *
  46:C:/Users/Admin/DaveWorkspaces/XMC4300_PWMTest/Libraries/XMCLib/inc\xmc_dac.h ****  * 2015-02-18:
  47:C:/Users/Admin/DaveWorkspaces/XMC4300_PWMTest/Libraries/XMCLib/inc\xmc_dac.h ****  *     - Initial version
  48:C:/Users/Admin/DaveWorkspaces/XMC4300_PWMTest/Libraries/XMCLib/inc\xmc_dac.h ****  *      
  49:C:/Users/Admin/DaveWorkspaces/XMC4300_PWMTest/Libraries/XMCLib/inc\xmc_dac.h ****  * 2015-02-20:
  50:C:/Users/Admin/DaveWorkspaces/XMC4300_PWMTest/Libraries/XMCLib/inc\xmc_dac.h ****  *     - Driver description added
  51:C:/Users/Admin/DaveWorkspaces/XMC4300_PWMTest/Libraries/XMCLib/inc\xmc_dac.h ****  *
  52:C:/Users/Admin/DaveWorkspaces/XMC4300_PWMTest/Libraries/XMCLib/inc\xmc_dac.h ****  * 2015-06-19:
  53:C:/Users/Admin/DaveWorkspaces/XMC4300_PWMTest/Libraries/XMCLib/inc\xmc_dac.h ****  *     - Removed version macros and declaration of GetDriverVersion API
  54:C:/Users/Admin/DaveWorkspaces/XMC4300_PWMTest/Libraries/XMCLib/inc\xmc_dac.h ****  *
  55:C:/Users/Admin/DaveWorkspaces/XMC4300_PWMTest/Libraries/XMCLib/inc\xmc_dac.h ****  * 2015-08-31:
  56:C:/Users/Admin/DaveWorkspaces/XMC4300_PWMTest/Libraries/XMCLib/inc\xmc_dac.h ****  *     - Help document updated
  57:C:/Users/Admin/DaveWorkspaces/XMC4300_PWMTest/Libraries/XMCLib/inc\xmc_dac.h ****  * @endcond 
  58:C:/Users/Admin/DaveWorkspaces/XMC4300_PWMTest/Libraries/XMCLib/inc\xmc_dac.h ****  *
  59:C:/Users/Admin/DaveWorkspaces/XMC4300_PWMTest/Libraries/XMCLib/inc\xmc_dac.h ****  */
  60:C:/Users/Admin/DaveWorkspaces/XMC4300_PWMTest/Libraries/XMCLib/inc\xmc_dac.h **** 
  61:C:/Users/Admin/DaveWorkspaces/XMC4300_PWMTest/Libraries/XMCLib/inc\xmc_dac.h **** #ifndef XMC_DAC_H
  62:C:/Users/Admin/DaveWorkspaces/XMC4300_PWMTest/Libraries/XMCLib/inc\xmc_dac.h **** #define XMC_DAC_H
  63:C:/Users/Admin/DaveWorkspaces/XMC4300_PWMTest/Libraries/XMCLib/inc\xmc_dac.h **** 
  64:C:/Users/Admin/DaveWorkspaces/XMC4300_PWMTest/Libraries/XMCLib/inc\xmc_dac.h **** /*******************************************************************************
  65:C:/Users/Admin/DaveWorkspaces/XMC4300_PWMTest/Libraries/XMCLib/inc\xmc_dac.h ****  * HEADER FILES
  66:C:/Users/Admin/DaveWorkspaces/XMC4300_PWMTest/Libraries/XMCLib/inc\xmc_dac.h ****  *******************************************************************************/
  67:C:/Users/Admin/DaveWorkspaces/XMC4300_PWMTest/Libraries/XMCLib/inc\xmc_dac.h **** 
  68:C:/Users/Admin/DaveWorkspaces/XMC4300_PWMTest/Libraries/XMCLib/inc\xmc_dac.h **** #include <xmc_common.h>
  69:C:/Users/Admin/DaveWorkspaces/XMC4300_PWMTest/Libraries/XMCLib/inc\xmc_dac.h **** 
  70:C:/Users/Admin/DaveWorkspaces/XMC4300_PWMTest/Libraries/XMCLib/inc\xmc_dac.h **** /* DAC peripheral is not available on XMC1X devices. */
  71:C:/Users/Admin/DaveWorkspaces/XMC4300_PWMTest/Libraries/XMCLib/inc\xmc_dac.h **** #if defined(DAC)
  72:C:/Users/Admin/DaveWorkspaces/XMC4300_PWMTest/Libraries/XMCLib/inc\xmc_dac.h **** 
  73:C:/Users/Admin/DaveWorkspaces/XMC4300_PWMTest/Libraries/XMCLib/inc\xmc_dac.h **** /**
  74:C:/Users/Admin/DaveWorkspaces/XMC4300_PWMTest/Libraries/XMCLib/inc\xmc_dac.h ****  * @addtogroup XMClib
  75:C:/Users/Admin/DaveWorkspaces/XMC4300_PWMTest/Libraries/XMCLib/inc\xmc_dac.h ****  * @{
  76:C:/Users/Admin/DaveWorkspaces/XMC4300_PWMTest/Libraries/XMCLib/inc\xmc_dac.h ****  */
  77:C:/Users/Admin/DaveWorkspaces/XMC4300_PWMTest/Libraries/XMCLib/inc\xmc_dac.h **** 
  78:C:/Users/Admin/DaveWorkspaces/XMC4300_PWMTest/Libraries/XMCLib/inc\xmc_dac.h **** /**
  79:C:/Users/Admin/DaveWorkspaces/XMC4300_PWMTest/Libraries/XMCLib/inc\xmc_dac.h ****  * @addtogroup DAC
  80:C:/Users/Admin/DaveWorkspaces/XMC4300_PWMTest/Libraries/XMCLib/inc\xmc_dac.h ****  * @{
  81:C:/Users/Admin/DaveWorkspaces/XMC4300_PWMTest/Libraries/XMCLib/inc\xmc_dac.h ****  *
  82:C:/Users/Admin/DaveWorkspaces/XMC4300_PWMTest/Libraries/XMCLib/inc\xmc_dac.h ****  * @brief Digital to Analog Converter (DAC) driver for XMC 4000 microcontroller family. <br>
  83:C:/Users/Admin/DaveWorkspaces/XMC4300_PWMTest/Libraries/XMCLib/inc\xmc_dac.h ****  *
  84:C:/Users/Admin/DaveWorkspaces/XMC4300_PWMTest/Libraries/XMCLib/inc\xmc_dac.h ****  * DAC driver uses DAC peripheral to convert digital value to analog value. XMC4000 microcontroller
  85:C:/Users/Admin/DaveWorkspaces/XMC4300_PWMTest/Libraries/XMCLib/inc\xmc_dac.h ****  * and maximum conversion rate of 2MHz with full accuracy and 5MHz with reduced accuracy.
  86:C:/Users/Admin/DaveWorkspaces/XMC4300_PWMTest/Libraries/XMCLib/inc\xmc_dac.h ****  * It consists of inbuilt pattern generator, ramp generator and noise generator modes. Additionally
  87:C:/Users/Admin/DaveWorkspaces/XMC4300_PWMTest/Libraries/XMCLib/inc\xmc_dac.h ****  * in single value mode and in data mode.
  88:C:/Users/Admin/DaveWorkspaces/XMC4300_PWMTest/Libraries/XMCLib/inc\xmc_dac.h ****  * It has DMA handling capability to generate custom waveforms in data mode without CPU interventio
  89:C:/Users/Admin/DaveWorkspaces/XMC4300_PWMTest/Libraries/XMCLib/inc\xmc_dac.h ****  *
  90:C:/Users/Admin/DaveWorkspaces/XMC4300_PWMTest/Libraries/XMCLib/inc\xmc_dac.h ****  * DAC driver features:
  91:C:/Users/Admin/DaveWorkspaces/XMC4300_PWMTest/Libraries/XMCLib/inc\xmc_dac.h ****  * -#  Configuration structure XMC_DAC_CH_CONFIG_t and initialization function XMC_DAC_CH_Init() to
  92:C:/Users/Admin/DaveWorkspaces/XMC4300_PWMTest/Libraries/XMCLib/inc\xmc_dac.h ****  * -#  Pattern Generator Mode:
  93:C:/Users/Admin/DaveWorkspaces/XMC4300_PWMTest/Libraries/XMCLib/inc\xmc_dac.h ****  * 	- DAC is configured in pattern generator mode using XMC_DAC_CH_StartPatternMode()
  94:C:/Users/Admin/DaveWorkspaces/XMC4300_PWMTest/Libraries/XMCLib/inc\xmc_dac.h ****  * 	- XMC_DAC_CH_SetPattern() is used to set the waveform pattern values in pattern register for on
  95:C:/Users/Admin/DaveWorkspaces/XMC4300_PWMTest/Libraries/XMCLib/inc\xmc_dac.h ****  * 	- Allows to change the trigger frequency using XMC_DAC_CH_SetPatternFrequency()
  96:C:/Users/Admin/DaveWorkspaces/XMC4300_PWMTest/Libraries/XMCLib/inc\xmc_dac.h ****  * -#  Single Value Mode:
  97:C:/Users/Admin/DaveWorkspaces/XMC4300_PWMTest/Libraries/XMCLib/inc\xmc_dac.h ****  * 	- DAC is configured in single value mode using XMC_DAC_CH_StartSingleValueMode()
  98:C:/Users/Admin/DaveWorkspaces/XMC4300_PWMTest/Libraries/XMCLib/inc\xmc_dac.h ****  * 	- Allows to change the trigger frequency using XMC_DAC_CH_SetFrequency()
  99:C:/Users/Admin/DaveWorkspaces/XMC4300_PWMTest/Libraries/XMCLib/inc\xmc_dac.h ****  * -# Data Mode:
 100:C:/Users/Admin/DaveWorkspaces/XMC4300_PWMTest/Libraries/XMCLib/inc\xmc_dac.h ****  * 	- DAC is configured in data mode using XMC_DAC_CH_StartDataMode()
 101:C:/Users/Admin/DaveWorkspaces/XMC4300_PWMTest/Libraries/XMCLib/inc\xmc_dac.h ****  * 	- Allows to change the trigger frequency using XMC_DAC_CH_SetFrequency()
 102:C:/Users/Admin/DaveWorkspaces/XMC4300_PWMTest/Libraries/XMCLib/inc\xmc_dac.h ****  * -# Ramp Mode:
 103:C:/Users/Admin/DaveWorkspaces/XMC4300_PWMTest/Libraries/XMCLib/inc\xmc_dac.h ****  *  - DAC is configured in ramp generator mode using XMC_DAC_CH_StartRampMode()
 104:C:/Users/Admin/DaveWorkspaces/XMC4300_PWMTest/Libraries/XMCLib/inc\xmc_dac.h ****  *  - Allows to change the trigger frequency using XMC_DAC_CH_SetRampFrequency()
 105:C:/Users/Admin/DaveWorkspaces/XMC4300_PWMTest/Libraries/XMCLib/inc\xmc_dac.h ****  *  - Allows to set the start and stop values of the ramp using XMC_DAC_CH_SetRampStart() and XMC_D
 106:C:/Users/Admin/DaveWorkspaces/XMC4300_PWMTest/Libraries/XMCLib/inc\xmc_dac.h ****  * -# Noise Mode:
 107:C:/Users/Admin/DaveWorkspaces/XMC4300_PWMTest/Libraries/XMCLib/inc\xmc_dac.h ****  * 	- DAC is configured in noise mode using XMC_DAC_CH_StartNoiseMode()
 108:C:/Users/Admin/DaveWorkspaces/XMC4300_PWMTest/Libraries/XMCLib/inc\xmc_dac.h ****  * 	- Allows to change the trigger frequency using XMC_DAC_CH_SetFrequency()
 109:C:/Users/Admin/DaveWorkspaces/XMC4300_PWMTest/Libraries/XMCLib/inc\xmc_dac.h ****  * -# Allows to change the scale, offset dynamically using XMC_DAC_CH_SetOutputScale() and XMC_DAC_
 110:C:/Users/Admin/DaveWorkspaces/XMC4300_PWMTest/Libraries/XMCLib/inc\xmc_dac.h ****  * -# Allows to select one of the eight possible trigger sources using XMC_DAC_CH_SetTrigger()
 111:C:/Users/Admin/DaveWorkspaces/XMC4300_PWMTest/Libraries/XMCLib/inc\xmc_dac.h ****  * -# 2 DAC channels can be used in synchronization in single value mode and data mode to generate 
 112:C:/Users/Admin/DaveWorkspaces/XMC4300_PWMTest/Libraries/XMCLib/inc\xmc_dac.h ****  */
 113:C:/Users/Admin/DaveWorkspaces/XMC4300_PWMTest/Libraries/XMCLib/inc\xmc_dac.h **** 
 114:C:/Users/Admin/DaveWorkspaces/XMC4300_PWMTest/Libraries/XMCLib/inc\xmc_dac.h **** /*******************************************************************************
 115:C:/Users/Admin/DaveWorkspaces/XMC4300_PWMTest/Libraries/XMCLib/inc\xmc_dac.h ****  * MACROS
 116:C:/Users/Admin/DaveWorkspaces/XMC4300_PWMTest/Libraries/XMCLib/inc\xmc_dac.h ****  *******************************************************************************/
 117:C:/Users/Admin/DaveWorkspaces/XMC4300_PWMTest/Libraries/XMCLib/inc\xmc_dac.h **** 
 118:C:/Users/Admin/DaveWorkspaces/XMC4300_PWMTest/Libraries/XMCLib/inc\xmc_dac.h **** #define XMC_DAC0 ((XMC_DAC_t *)DAC_BASE)         /**< DAC module register base */
 119:C:/Users/Admin/DaveWorkspaces/XMC4300_PWMTest/Libraries/XMCLib/inc\xmc_dac.h **** 
 120:C:/Users/Admin/DaveWorkspaces/XMC4300_PWMTest/Libraries/XMCLib/inc\xmc_dac.h **** #define XMC_DAC_DACCFG_NEGATE_Msk (0x10000000UL) /*< DAC negation enable mask in XMC44 device */
 121:C:/Users/Admin/DaveWorkspaces/XMC4300_PWMTest/Libraries/XMCLib/inc\xmc_dac.h **** #define XMC_DAC_NO_CHANNELS (2U)                 /**< DAC maximum channels */
 122:C:/Users/Admin/DaveWorkspaces/XMC4300_PWMTest/Libraries/XMCLib/inc\xmc_dac.h **** #define XMC_DAC_SAMPLES_PER_PERIOD (32U)         /**< DAC samples per period in pattern mode */
 123:C:/Users/Admin/DaveWorkspaces/XMC4300_PWMTest/Libraries/XMCLib/inc\xmc_dac.h **** 
 124:C:/Users/Admin/DaveWorkspaces/XMC4300_PWMTest/Libraries/XMCLib/inc\xmc_dac.h **** #define XMC_DAC_PATTERN_TRIANGLE  {0U, 4U, 8U, 12U, 16U, 19U, 23U, 27U, 31U} /**< First quarter Tri
 125:C:/Users/Admin/DaveWorkspaces/XMC4300_PWMTest/Libraries/XMCLib/inc\xmc_dac.h **** #define XMC_DAC_PATTERN_SINE      {0U, 6U, 12U, 17U, 22U, 26U, 29U, 30U, 31U} /**< First quarter Si
 126:C:/Users/Admin/DaveWorkspaces/XMC4300_PWMTest/Libraries/XMCLib/inc\xmc_dac.h **** #define XMC_DAC_PATTERN_RECTANGLE {31U, 31U, 31U, 31U, 31U, 31U, 31U, 31U, 31U} /**< First quarter 
 127:C:/Users/Admin/DaveWorkspaces/XMC4300_PWMTest/Libraries/XMCLib/inc\xmc_dac.h **** 
 128:C:/Users/Admin/DaveWorkspaces/XMC4300_PWMTest/Libraries/XMCLib/inc\xmc_dac.h **** #define XMC_DAC_IS_DAC_VALID(PTR)            ((PTR) == XMC_DAC0)
 129:C:/Users/Admin/DaveWorkspaces/XMC4300_PWMTest/Libraries/XMCLib/inc\xmc_dac.h **** #define XMC_DAC_IS_CHANNEL_VALID(CH)         (CH < XMC_DAC_NO_CHANNELS)
 130:C:/Users/Admin/DaveWorkspaces/XMC4300_PWMTest/Libraries/XMCLib/inc\xmc_dac.h **** #define XMC_DAC_IS_TRIGGER_VALID(TRIGGER)    ((TRIGGER == XMC_DAC_CH_TRIGGER_INTERNAL) ||\
 131:C:/Users/Admin/DaveWorkspaces/XMC4300_PWMTest/Libraries/XMCLib/inc\xmc_dac.h ****                                               (TRIGGER == XMC_DAC_CH_TRIGGER_EXTERNAL_CCU80_SR1) ||
 132:C:/Users/Admin/DaveWorkspaces/XMC4300_PWMTest/Libraries/XMCLib/inc\xmc_dac.h ****                                               (TRIGGER == XMC_DAC_CH_TRIGGER_EXTERNAL_CCU40_SR1) ||
 133:C:/Users/Admin/DaveWorkspaces/XMC4300_PWMTest/Libraries/XMCLib/inc\xmc_dac.h ****                                               (TRIGGER == XMC_DAC_CH_TRIGGER_EXTERNAL_CCU41_SR1) ||
 134:C:/Users/Admin/DaveWorkspaces/XMC4300_PWMTest/Libraries/XMCLib/inc\xmc_dac.h ****                                               (TRIGGER == XMC_DAC_CH_TRIGGER_EXTERNAL_P2_9) ||\
 135:C:/Users/Admin/DaveWorkspaces/XMC4300_PWMTest/Libraries/XMCLib/inc\xmc_dac.h ****                                               (TRIGGER == XMC_DAC_CH_TRIGGER_EXTERNAL_P2_8) ||\
 136:C:/Users/Admin/DaveWorkspaces/XMC4300_PWMTest/Libraries/XMCLib/inc\xmc_dac.h ****                                               (TRIGGER == XMC_DAC_CH_TRIGGER_EXTERNAL_U0C0_DX1INS) 
 137:C:/Users/Admin/DaveWorkspaces/XMC4300_PWMTest/Libraries/XMCLib/inc\xmc_dac.h ****                                               (TRIGGER == XMC_DAC_CH_TRIGGER_EXTERNAL_U1C0_DX1INS) 
 138:C:/Users/Admin/DaveWorkspaces/XMC4300_PWMTest/Libraries/XMCLib/inc\xmc_dac.h ****                                               (TRIGGER == XMC_DAC_CH_TRIGGER_SOFTWARE))
 139:C:/Users/Admin/DaveWorkspaces/XMC4300_PWMTest/Libraries/XMCLib/inc\xmc_dac.h **** #define XMC_DAC_IS_MODE_VALID(MODE)          ((MODE == XMC_DAC_CH_MODE_IDLE) ||\
 140:C:/Users/Admin/DaveWorkspaces/XMC4300_PWMTest/Libraries/XMCLib/inc\xmc_dac.h ****                                               (MODE == XMC_DAC_CH_MODE_SINGLE) ||\
 141:C:/Users/Admin/DaveWorkspaces/XMC4300_PWMTest/Libraries/XMCLib/inc\xmc_dac.h ****                                               (MODE == XMC_DAC_CH_MODE_DATA) ||\
 142:C:/Users/Admin/DaveWorkspaces/XMC4300_PWMTest/Libraries/XMCLib/inc\xmc_dac.h ****                                               (MODE == XMC_DAC_CH_MODE_PATTERN) ||\
 143:C:/Users/Admin/DaveWorkspaces/XMC4300_PWMTest/Libraries/XMCLib/inc\xmc_dac.h ****                                               (MODE == XMC_DAC_CH_MODE_NOISE) ||\
 144:C:/Users/Admin/DaveWorkspaces/XMC4300_PWMTest/Libraries/XMCLib/inc\xmc_dac.h ****                                               (MODE == XMC_DAC_CH_MODE_RAMP))
 145:C:/Users/Admin/DaveWorkspaces/XMC4300_PWMTest/Libraries/XMCLib/inc\xmc_dac.h **** #define XMC_DAC_IS_OUTPUT_SCALE_VALID(SCALE) ((SCALE == XMC_DAC_CH_OUTPUT_SCALE_NONE) ||\
 146:C:/Users/Admin/DaveWorkspaces/XMC4300_PWMTest/Libraries/XMCLib/inc\xmc_dac.h ****                                               (SCALE == XMC_DAC_CH_OUTPUT_SCALE_MUL_2) ||\
 147:C:/Users/Admin/DaveWorkspaces/XMC4300_PWMTest/Libraries/XMCLib/inc\xmc_dac.h ****                                               (SCALE == XMC_DAC_CH_OUTPUT_SCALE_MUL_4) ||\
 148:C:/Users/Admin/DaveWorkspaces/XMC4300_PWMTest/Libraries/XMCLib/inc\xmc_dac.h ****                                               (SCALE == XMC_DAC_CH_OUTPUT_SCALE_MUL_8) ||\
 149:C:/Users/Admin/DaveWorkspaces/XMC4300_PWMTest/Libraries/XMCLib/inc\xmc_dac.h ****                                               (SCALE == XMC_DAC_CH_OUTPUT_SCALE_MUL_16) ||\
 150:C:/Users/Admin/DaveWorkspaces/XMC4300_PWMTest/Libraries/XMCLib/inc\xmc_dac.h ****                                               (SCALE == XMC_DAC_CH_OUTPUT_SCALE_MUL_32) ||\
 151:C:/Users/Admin/DaveWorkspaces/XMC4300_PWMTest/Libraries/XMCLib/inc\xmc_dac.h ****                                               (SCALE == XMC_DAC_CH_OUTPUT_SCALE_MUL_64) ||\
 152:C:/Users/Admin/DaveWorkspaces/XMC4300_PWMTest/Libraries/XMCLib/inc\xmc_dac.h ****                                               (SCALE == XMC_DAC_CH_OUTPUT_SCALE_MUL_128) ||\
 153:C:/Users/Admin/DaveWorkspaces/XMC4300_PWMTest/Libraries/XMCLib/inc\xmc_dac.h ****                                               (SCALE == XMC_DAC_CH_OUTPUT_SCALE_DIV_2) ||\
 154:C:/Users/Admin/DaveWorkspaces/XMC4300_PWMTest/Libraries/XMCLib/inc\xmc_dac.h ****                                               (SCALE == XMC_DAC_CH_OUTPUT_SCALE_DIV_4) ||\
 155:C:/Users/Admin/DaveWorkspaces/XMC4300_PWMTest/Libraries/XMCLib/inc\xmc_dac.h ****                                               (SCALE == XMC_DAC_CH_OUTPUT_SCALE_DIV_8) ||\
 156:C:/Users/Admin/DaveWorkspaces/XMC4300_PWMTest/Libraries/XMCLib/inc\xmc_dac.h ****                                               (SCALE == XMC_DAC_CH_OUTPUT_SCALE_DIV_16) ||\
 157:C:/Users/Admin/DaveWorkspaces/XMC4300_PWMTest/Libraries/XMCLib/inc\xmc_dac.h ****                                               (SCALE == XMC_DAC_CH_OUTPUT_SCALE_DIV_32) ||\
 158:C:/Users/Admin/DaveWorkspaces/XMC4300_PWMTest/Libraries/XMCLib/inc\xmc_dac.h ****                                               (SCALE == XMC_DAC_CH_OUTPUT_SCALE_DIV_64) ||\
 159:C:/Users/Admin/DaveWorkspaces/XMC4300_PWMTest/Libraries/XMCLib/inc\xmc_dac.h ****                                               (SCALE == XMC_DAC_CH_OUTPUT_SCALE_DIV_128))
 160:C:/Users/Admin/DaveWorkspaces/XMC4300_PWMTest/Libraries/XMCLib/inc\xmc_dac.h ****                                             
 161:C:/Users/Admin/DaveWorkspaces/XMC4300_PWMTest/Libraries/XMCLib/inc\xmc_dac.h **** 
 162:C:/Users/Admin/DaveWorkspaces/XMC4300_PWMTest/Libraries/XMCLib/inc\xmc_dac.h **** /*******************************************************************************
 163:C:/Users/Admin/DaveWorkspaces/XMC4300_PWMTest/Libraries/XMCLib/inc\xmc_dac.h ****  * ENUMS
 164:C:/Users/Admin/DaveWorkspaces/XMC4300_PWMTest/Libraries/XMCLib/inc\xmc_dac.h ****  *******************************************************************************/
 165:C:/Users/Admin/DaveWorkspaces/XMC4300_PWMTest/Libraries/XMCLib/inc\xmc_dac.h **** 
 166:C:/Users/Admin/DaveWorkspaces/XMC4300_PWMTest/Libraries/XMCLib/inc\xmc_dac.h **** /**
 167:C:/Users/Admin/DaveWorkspaces/XMC4300_PWMTest/Libraries/XMCLib/inc\xmc_dac.h ****  * Return types of the API's
 168:C:/Users/Admin/DaveWorkspaces/XMC4300_PWMTest/Libraries/XMCLib/inc\xmc_dac.h ****  */
 169:C:/Users/Admin/DaveWorkspaces/XMC4300_PWMTest/Libraries/XMCLib/inc\xmc_dac.h **** typedef enum XMC_DAC_CH_STATUS
 170:C:/Users/Admin/DaveWorkspaces/XMC4300_PWMTest/Libraries/XMCLib/inc\xmc_dac.h **** {
 171:C:/Users/Admin/DaveWorkspaces/XMC4300_PWMTest/Libraries/XMCLib/inc\xmc_dac.h ****   XMC_DAC_CH_STATUS_OK              = 0U, /**< Status is ok, no error detected */
 172:C:/Users/Admin/DaveWorkspaces/XMC4300_PWMTest/Libraries/XMCLib/inc\xmc_dac.h ****   XMC_DAC_CH_STATUS_ERROR           = 1U, /**< Error detected */
 173:C:/Users/Admin/DaveWorkspaces/XMC4300_PWMTest/Libraries/XMCLib/inc\xmc_dac.h ****   XMC_DAC_CH_STATUS_BUSY            = 2U, /**< DAC is busy */
 174:C:/Users/Admin/DaveWorkspaces/XMC4300_PWMTest/Libraries/XMCLib/inc\xmc_dac.h ****   XMC_DAC_CH_STATUS_ERROR_FREQ2LOW  = 3U, /**< Frequency can't be configured. Frequency is to low. 
 175:C:/Users/Admin/DaveWorkspaces/XMC4300_PWMTest/Libraries/XMCLib/inc\xmc_dac.h ****   XMC_DAC_CH_STATUS_ERROR_FREQ2HIGH = 4U  /**< Frequency can't be configured. Frequency is to high.
 176:C:/Users/Admin/DaveWorkspaces/XMC4300_PWMTest/Libraries/XMCLib/inc\xmc_dac.h **** } XMC_DAC_CH_STATUS_t;
 177:C:/Users/Admin/DaveWorkspaces/XMC4300_PWMTest/Libraries/XMCLib/inc\xmc_dac.h **** 
 178:C:/Users/Admin/DaveWorkspaces/XMC4300_PWMTest/Libraries/XMCLib/inc\xmc_dac.h **** /**
 179:C:/Users/Admin/DaveWorkspaces/XMC4300_PWMTest/Libraries/XMCLib/inc\xmc_dac.h ****  * Operating modes of DAC
 180:C:/Users/Admin/DaveWorkspaces/XMC4300_PWMTest/Libraries/XMCLib/inc\xmc_dac.h ****  */
 181:C:/Users/Admin/DaveWorkspaces/XMC4300_PWMTest/Libraries/XMCLib/inc\xmc_dac.h **** typedef enum XMC_DAC_CH_MODE
 182:C:/Users/Admin/DaveWorkspaces/XMC4300_PWMTest/Libraries/XMCLib/inc\xmc_dac.h **** {
 183:C:/Users/Admin/DaveWorkspaces/XMC4300_PWMTest/Libraries/XMCLib/inc\xmc_dac.h ****   XMC_DAC_CH_MODE_IDLE    = 0x0U << DAC_DAC0CFG0_MODE_Pos,    /**< DAC is disabled */
 184:C:/Users/Admin/DaveWorkspaces/XMC4300_PWMTest/Libraries/XMCLib/inc\xmc_dac.h ****   XMC_DAC_CH_MODE_SINGLE  = 0x1U << DAC_DAC0CFG0_MODE_Pos,    /**< Single value mode - single data 
 185:C:/Users/Admin/DaveWorkspaces/XMC4300_PWMTest/Libraries/XMCLib/inc\xmc_dac.h ****   XMC_DAC_CH_MODE_DATA    = 0x2U << DAC_DAC0CFG0_MODE_Pos,    /**< Data mode - continuous data proc
 186:C:/Users/Admin/DaveWorkspaces/XMC4300_PWMTest/Libraries/XMCLib/inc\xmc_dac.h ****   XMC_DAC_CH_MODE_PATTERN = 0x3U << DAC_DAC0CFG0_MODE_Pos,    /**< Pattern mode - inbuilt pattern w
 187:C:/Users/Admin/DaveWorkspaces/XMC4300_PWMTest/Libraries/XMCLib/inc\xmc_dac.h ****                                                                    Sine, Triangle, Rectangle */
 188:C:/Users/Admin/DaveWorkspaces/XMC4300_PWMTest/Libraries/XMCLib/inc\xmc_dac.h ****   XMC_DAC_CH_MODE_NOISE   = 0x4U << DAC_DAC0CFG0_MODE_Pos,    /**< Noise mode - pseudo-random noise
 189:C:/Users/Admin/DaveWorkspaces/XMC4300_PWMTest/Libraries/XMCLib/inc\xmc_dac.h ****   XMC_DAC_CH_MODE_RAMP    = 0x5U << DAC_DAC0CFG0_MODE_Pos     /**< Ramp mode - ramp generation */
 190:C:/Users/Admin/DaveWorkspaces/XMC4300_PWMTest/Libraries/XMCLib/inc\xmc_dac.h **** } XMC_DAC_CH_MODE_t;
 191:C:/Users/Admin/DaveWorkspaces/XMC4300_PWMTest/Libraries/XMCLib/inc\xmc_dac.h **** 
 192:C:/Users/Admin/DaveWorkspaces/XMC4300_PWMTest/Libraries/XMCLib/inc\xmc_dac.h **** /**
 193:C:/Users/Admin/DaveWorkspaces/XMC4300_PWMTest/Libraries/XMCLib/inc\xmc_dac.h ****  * Trigger sources for the data update
 194:C:/Users/Admin/DaveWorkspaces/XMC4300_PWMTest/Libraries/XMCLib/inc\xmc_dac.h ****  */
 195:C:/Users/Admin/DaveWorkspaces/XMC4300_PWMTest/Libraries/XMCLib/inc\xmc_dac.h **** typedef enum XMC_DAC_CH_TRIGGER
 196:C:/Users/Admin/DaveWorkspaces/XMC4300_PWMTest/Libraries/XMCLib/inc\xmc_dac.h **** {
 197:C:/Users/Admin/DaveWorkspaces/XMC4300_PWMTest/Libraries/XMCLib/inc\xmc_dac.h ****   XMC_DAC_CH_TRIGGER_INTERNAL =
 198:C:/Users/Admin/DaveWorkspaces/XMC4300_PWMTest/Libraries/XMCLib/inc\xmc_dac.h ****       (0x0U << DAC_DAC0CFG1_TRIGMOD_Pos),                                      /**< Internal trigge
 199:C:/Users/Admin/DaveWorkspaces/XMC4300_PWMTest/Libraries/XMCLib/inc\xmc_dac.h ****   XMC_DAC_CH_TRIGGER_EXTERNAL_CCU80_SR1 =
 200:C:/Users/Admin/DaveWorkspaces/XMC4300_PWMTest/Libraries/XMCLib/inc\xmc_dac.h ****       (0x1U << DAC_DAC0CFG1_TRIGMOD_Pos) | 0x0U,                               /**< External trigge
 201:C:/Users/Admin/DaveWorkspaces/XMC4300_PWMTest/Libraries/XMCLib/inc\xmc_dac.h ****   XMC_DAC_CH_TRIGGER_EXTERNAL_CCU40_SR1 =
 202:C:/Users/Admin/DaveWorkspaces/XMC4300_PWMTest/Libraries/XMCLib/inc\xmc_dac.h ****       (0x1U << DAC_DAC0CFG1_TRIGMOD_Pos) | (0x2U << DAC_DAC0CFG1_TRIGSEL_Pos), /**< External trigge
 203:C:/Users/Admin/DaveWorkspaces/XMC4300_PWMTest/Libraries/XMCLib/inc\xmc_dac.h ****   XMC_DAC_CH_TRIGGER_EXTERNAL_CCU41_SR1 =
 204:C:/Users/Admin/DaveWorkspaces/XMC4300_PWMTest/Libraries/XMCLib/inc\xmc_dac.h ****       (0x1U << DAC_DAC0CFG1_TRIGMOD_Pos) | (0x3U << DAC_DAC0CFG1_TRIGSEL_Pos), /**< External trigge
 205:C:/Users/Admin/DaveWorkspaces/XMC4300_PWMTest/Libraries/XMCLib/inc\xmc_dac.h ****   XMC_DAC_CH_TRIGGER_EXTERNAL_P2_9 =
 206:C:/Users/Admin/DaveWorkspaces/XMC4300_PWMTest/Libraries/XMCLib/inc\xmc_dac.h ****       (0x1U << DAC_DAC0CFG1_TRIGMOD_Pos) | (0x4U << DAC_DAC0CFG1_TRIGSEL_Pos), /**< External trigge
 207:C:/Users/Admin/DaveWorkspaces/XMC4300_PWMTest/Libraries/XMCLib/inc\xmc_dac.h ****   XMC_DAC_CH_TRIGGER_EXTERNAL_P2_8 =
 208:C:/Users/Admin/DaveWorkspaces/XMC4300_PWMTest/Libraries/XMCLib/inc\xmc_dac.h ****       (0x1U << DAC_DAC0CFG1_TRIGMOD_Pos) | (0x5U << DAC_DAC0CFG1_TRIGSEL_Pos), /**< External trigge
 209:C:/Users/Admin/DaveWorkspaces/XMC4300_PWMTest/Libraries/XMCLib/inc\xmc_dac.h ****   XMC_DAC_CH_TRIGGER_EXTERNAL_U0C0_DX1INS =
 210:C:/Users/Admin/DaveWorkspaces/XMC4300_PWMTest/Libraries/XMCLib/inc\xmc_dac.h ****       (0x1U << DAC_DAC0CFG1_TRIGMOD_Pos) | (0x6U << DAC_DAC0CFG1_TRIGSEL_Pos), /**< External trigge
 211:C:/Users/Admin/DaveWorkspaces/XMC4300_PWMTest/Libraries/XMCLib/inc\xmc_dac.h ****   XMC_DAC_CH_TRIGGER_EXTERNAL_U1C0_DX1INS =
 212:C:/Users/Admin/DaveWorkspaces/XMC4300_PWMTest/Libraries/XMCLib/inc\xmc_dac.h ****       (0x1U << DAC_DAC0CFG1_TRIGMOD_Pos) | (0x7U << DAC_DAC0CFG1_TRIGSEL_Pos), /**< External trigge
 213:C:/Users/Admin/DaveWorkspaces/XMC4300_PWMTest/Libraries/XMCLib/inc\xmc_dac.h ****   XMC_DAC_CH_TRIGGER_SOFTWARE =
 214:C:/Users/Admin/DaveWorkspaces/XMC4300_PWMTest/Libraries/XMCLib/inc\xmc_dac.h ****       (0x2U << DAC_DAC0CFG1_TRIGMOD_Pos)                                       /**< Software trigge
 215:C:/Users/Admin/DaveWorkspaces/XMC4300_PWMTest/Libraries/XMCLib/inc\xmc_dac.h **** } XMC_DAC_CH_TRIGGER_t;
 216:C:/Users/Admin/DaveWorkspaces/XMC4300_PWMTest/Libraries/XMCLib/inc\xmc_dac.h **** 
 217:C:/Users/Admin/DaveWorkspaces/XMC4300_PWMTest/Libraries/XMCLib/inc\xmc_dac.h **** /**
 218:C:/Users/Admin/DaveWorkspaces/XMC4300_PWMTest/Libraries/XMCLib/inc\xmc_dac.h ****  * Data type of the input data
 219:C:/Users/Admin/DaveWorkspaces/XMC4300_PWMTest/Libraries/XMCLib/inc\xmc_dac.h ****  */
 220:C:/Users/Admin/DaveWorkspaces/XMC4300_PWMTest/Libraries/XMCLib/inc\xmc_dac.h **** typedef enum XMC_DAC_CH_DATA_TYPE
 221:C:/Users/Admin/DaveWorkspaces/XMC4300_PWMTest/Libraries/XMCLib/inc\xmc_dac.h **** {
 222:C:/Users/Admin/DaveWorkspaces/XMC4300_PWMTest/Libraries/XMCLib/inc\xmc_dac.h ****   XMC_DAC_CH_DATA_TYPE_UNSIGNED = 0U , /**< input data is unsigned */
 223:C:/Users/Admin/DaveWorkspaces/XMC4300_PWMTest/Libraries/XMCLib/inc\xmc_dac.h ****   XMC_DAC_CH_DATA_TYPE_SIGNED = 1U     /**< input data is signed */
 224:C:/Users/Admin/DaveWorkspaces/XMC4300_PWMTest/Libraries/XMCLib/inc\xmc_dac.h **** } XMC_DAC_CH_DATA_TYPE_t;
 225:C:/Users/Admin/DaveWorkspaces/XMC4300_PWMTest/Libraries/XMCLib/inc\xmc_dac.h **** 
 226:C:/Users/Admin/DaveWorkspaces/XMC4300_PWMTest/Libraries/XMCLib/inc\xmc_dac.h **** /**
 227:C:/Users/Admin/DaveWorkspaces/XMC4300_PWMTest/Libraries/XMCLib/inc\xmc_dac.h ****  * Scaling of the input data
 228:C:/Users/Admin/DaveWorkspaces/XMC4300_PWMTest/Libraries/XMCLib/inc\xmc_dac.h ****  */
 229:C:/Users/Admin/DaveWorkspaces/XMC4300_PWMTest/Libraries/XMCLib/inc\xmc_dac.h **** typedef enum XMC_DAC_CH_OUTPUT_SCALE
 230:C:/Users/Admin/DaveWorkspaces/XMC4300_PWMTest/Libraries/XMCLib/inc\xmc_dac.h **** {
 231:C:/Users/Admin/DaveWorkspaces/XMC4300_PWMTest/Libraries/XMCLib/inc\xmc_dac.h ****   XMC_DAC_CH_OUTPUT_SCALE_NONE =
 232:C:/Users/Admin/DaveWorkspaces/XMC4300_PWMTest/Libraries/XMCLib/inc\xmc_dac.h ****       0x0U,                                                                   /**< No scaling */
 233:C:/Users/Admin/DaveWorkspaces/XMC4300_PWMTest/Libraries/XMCLib/inc\xmc_dac.h ****   XMC_DAC_CH_OUTPUT_SCALE_MUL_2 =
 234:C:/Users/Admin/DaveWorkspaces/XMC4300_PWMTest/Libraries/XMCLib/inc\xmc_dac.h ****       (0x1U << DAC_DAC0CFG1_MULDIV_Pos) | (0x1U << DAC_DAC0CFG1_SCALE_Pos),   /**< multiplied by 2 
 235:C:/Users/Admin/DaveWorkspaces/XMC4300_PWMTest/Libraries/XMCLib/inc\xmc_dac.h ****   XMC_DAC_CH_OUTPUT_SCALE_MUL_4 =
 236:C:/Users/Admin/DaveWorkspaces/XMC4300_PWMTest/Libraries/XMCLib/inc\xmc_dac.h ****       (0x1U << DAC_DAC0CFG1_MULDIV_Pos) | (0x2U << DAC_DAC0CFG1_SCALE_Pos),   /**< multiplied by 4 
 237:C:/Users/Admin/DaveWorkspaces/XMC4300_PWMTest/Libraries/XMCLib/inc\xmc_dac.h ****   XMC_DAC_CH_OUTPUT_SCALE_MUL_8 =
 238:C:/Users/Admin/DaveWorkspaces/XMC4300_PWMTest/Libraries/XMCLib/inc\xmc_dac.h ****       (0x1U << DAC_DAC0CFG1_MULDIV_Pos) | (0x3U << DAC_DAC0CFG1_SCALE_Pos),   /**< multiplied by 8 
 239:C:/Users/Admin/DaveWorkspaces/XMC4300_PWMTest/Libraries/XMCLib/inc\xmc_dac.h ****   XMC_DAC_CH_OUTPUT_SCALE_MUL_16 =
 240:C:/Users/Admin/DaveWorkspaces/XMC4300_PWMTest/Libraries/XMCLib/inc\xmc_dac.h ****       (0x1U << DAC_DAC0CFG1_MULDIV_Pos) | (0x4U << DAC_DAC0CFG1_SCALE_Pos),   /**< multiplied by 16
 241:C:/Users/Admin/DaveWorkspaces/XMC4300_PWMTest/Libraries/XMCLib/inc\xmc_dac.h ****   XMC_DAC_CH_OUTPUT_SCALE_MUL_32 =
 242:C:/Users/Admin/DaveWorkspaces/XMC4300_PWMTest/Libraries/XMCLib/inc\xmc_dac.h ****       (0x1U << DAC_DAC0CFG1_MULDIV_Pos) | (0x5U << DAC_DAC0CFG1_SCALE_Pos),   /**< multiplied by 32
 243:C:/Users/Admin/DaveWorkspaces/XMC4300_PWMTest/Libraries/XMCLib/inc\xmc_dac.h ****   XMC_DAC_CH_OUTPUT_SCALE_MUL_64 =
 244:C:/Users/Admin/DaveWorkspaces/XMC4300_PWMTest/Libraries/XMCLib/inc\xmc_dac.h ****       (0x1U << DAC_DAC0CFG1_MULDIV_Pos) | (0x6U << DAC_DAC0CFG1_SCALE_Pos),   /**< multiplied by 64
 245:C:/Users/Admin/DaveWorkspaces/XMC4300_PWMTest/Libraries/XMCLib/inc\xmc_dac.h ****   XMC_DAC_CH_OUTPUT_SCALE_MUL_128 =
 246:C:/Users/Admin/DaveWorkspaces/XMC4300_PWMTest/Libraries/XMCLib/inc\xmc_dac.h ****       (0x1U << DAC_DAC0CFG1_MULDIV_Pos) | (0x7U << DAC_DAC0CFG1_SCALE_Pos),   /**< multiplied by 12
 247:C:/Users/Admin/DaveWorkspaces/XMC4300_PWMTest/Libraries/XMCLib/inc\xmc_dac.h ****   XMC_DAC_CH_OUTPUT_SCALE_DIV_2 =
 248:C:/Users/Admin/DaveWorkspaces/XMC4300_PWMTest/Libraries/XMCLib/inc\xmc_dac.h ****       0x1U << DAC_DAC0CFG1_SCALE_Pos,                                         /**< divided by 2 */
 249:C:/Users/Admin/DaveWorkspaces/XMC4300_PWMTest/Libraries/XMCLib/inc\xmc_dac.h ****   XMC_DAC_CH_OUTPUT_SCALE_DIV_4 =
 250:C:/Users/Admin/DaveWorkspaces/XMC4300_PWMTest/Libraries/XMCLib/inc\xmc_dac.h ****       0x2U << DAC_DAC0CFG1_SCALE_Pos,                                         /**< divided by 4 */
 251:C:/Users/Admin/DaveWorkspaces/XMC4300_PWMTest/Libraries/XMCLib/inc\xmc_dac.h ****   XMC_DAC_CH_OUTPUT_SCALE_DIV_8 =
 252:C:/Users/Admin/DaveWorkspaces/XMC4300_PWMTest/Libraries/XMCLib/inc\xmc_dac.h ****       0x3U << DAC_DAC0CFG1_SCALE_Pos,                                         /**< divided by 8 */
 253:C:/Users/Admin/DaveWorkspaces/XMC4300_PWMTest/Libraries/XMCLib/inc\xmc_dac.h ****   XMC_DAC_CH_OUTPUT_SCALE_DIV_16 =
 254:C:/Users/Admin/DaveWorkspaces/XMC4300_PWMTest/Libraries/XMCLib/inc\xmc_dac.h ****       0x4U << DAC_DAC0CFG1_SCALE_Pos,                                         /**< divided by 16 */
 255:C:/Users/Admin/DaveWorkspaces/XMC4300_PWMTest/Libraries/XMCLib/inc\xmc_dac.h ****   XMC_DAC_CH_OUTPUT_SCALE_DIV_32 =
 256:C:/Users/Admin/DaveWorkspaces/XMC4300_PWMTest/Libraries/XMCLib/inc\xmc_dac.h ****       0x5U << DAC_DAC0CFG1_SCALE_Pos,                                         /**< divided by 32 */
 257:C:/Users/Admin/DaveWorkspaces/XMC4300_PWMTest/Libraries/XMCLib/inc\xmc_dac.h ****   XMC_DAC_CH_OUTPUT_SCALE_DIV_64 =
 258:C:/Users/Admin/DaveWorkspaces/XMC4300_PWMTest/Libraries/XMCLib/inc\xmc_dac.h ****       0x6U << DAC_DAC0CFG1_SCALE_Pos,                                         /**< divided by 64 */
 259:C:/Users/Admin/DaveWorkspaces/XMC4300_PWMTest/Libraries/XMCLib/inc\xmc_dac.h ****   XMC_DAC_CH_OUTPUT_SCALE_DIV_128 =
 260:C:/Users/Admin/DaveWorkspaces/XMC4300_PWMTest/Libraries/XMCLib/inc\xmc_dac.h ****       0x7U << DAC_DAC0CFG1_SCALE_Pos                                          /**< divided by 128 *
 261:C:/Users/Admin/DaveWorkspaces/XMC4300_PWMTest/Libraries/XMCLib/inc\xmc_dac.h **** } XMC_DAC_CH_OUTPUT_SCALE_t;
 262:C:/Users/Admin/DaveWorkspaces/XMC4300_PWMTest/Libraries/XMCLib/inc\xmc_dac.h **** 
 263:C:/Users/Admin/DaveWorkspaces/XMC4300_PWMTest/Libraries/XMCLib/inc\xmc_dac.h **** /**
 264:C:/Users/Admin/DaveWorkspaces/XMC4300_PWMTest/Libraries/XMCLib/inc\xmc_dac.h ****  * Negation of input data (applicable only for XMC44 device)
 265:C:/Users/Admin/DaveWorkspaces/XMC4300_PWMTest/Libraries/XMCLib/inc\xmc_dac.h ****  */
 266:C:/Users/Admin/DaveWorkspaces/XMC4300_PWMTest/Libraries/XMCLib/inc\xmc_dac.h **** typedef enum XMC_DAC_CH_OUTPUT_NEGATION
 267:C:/Users/Admin/DaveWorkspaces/XMC4300_PWMTest/Libraries/XMCLib/inc\xmc_dac.h **** {
 268:C:/Users/Admin/DaveWorkspaces/XMC4300_PWMTest/Libraries/XMCLib/inc\xmc_dac.h ****   XMC_DAC_CH_OUTPUT_NEGATION_DISABLED = 0U,                   /**< XMC_DAC_CH_OUTPUT_NEGATION_DISAB
 269:C:/Users/Admin/DaveWorkspaces/XMC4300_PWMTest/Libraries/XMCLib/inc\xmc_dac.h ****   XMC_DAC_CH_OUTPUT_NEGATION_ENABLED = 1U                     /**< XMC_DAC_CH_OUTPUT_NEGATION_ENABL
 270:C:/Users/Admin/DaveWorkspaces/XMC4300_PWMTest/Libraries/XMCLib/inc\xmc_dac.h **** } XMC_DAC_CH_OUTPUT_NEGATION_t;
 271:C:/Users/Admin/DaveWorkspaces/XMC4300_PWMTest/Libraries/XMCLib/inc\xmc_dac.h **** 
 272:C:/Users/Admin/DaveWorkspaces/XMC4300_PWMTest/Libraries/XMCLib/inc\xmc_dac.h **** /**
 273:C:/Users/Admin/DaveWorkspaces/XMC4300_PWMTest/Libraries/XMCLib/inc\xmc_dac.h ****  * Output sign signal for the Pattern Generation Mode
 274:C:/Users/Admin/DaveWorkspaces/XMC4300_PWMTest/Libraries/XMCLib/inc\xmc_dac.h ****  */
 275:C:/Users/Admin/DaveWorkspaces/XMC4300_PWMTest/Libraries/XMCLib/inc\xmc_dac.h **** typedef enum XMC_DAC_CH_PATTERN_SIGN_OUTPUT
 276:C:/Users/Admin/DaveWorkspaces/XMC4300_PWMTest/Libraries/XMCLib/inc\xmc_dac.h **** {
 277:C:/Users/Admin/DaveWorkspaces/XMC4300_PWMTest/Libraries/XMCLib/inc\xmc_dac.h ****   XMC_DAC_CH_PATTERN_SIGN_OUTPUT_DISABLED = 0U,  /**< Sign output signal generation is disabled */
 278:C:/Users/Admin/DaveWorkspaces/XMC4300_PWMTest/Libraries/XMCLib/inc\xmc_dac.h ****   XMC_DAC_CH_PATTERN_SIGN_OUTPUT_ENABLED = 1U    /**< Sign output signal generation is enabled */
 279:C:/Users/Admin/DaveWorkspaces/XMC4300_PWMTest/Libraries/XMCLib/inc\xmc_dac.h **** } XMC_DAC_CH_PATTERN_SIGN_OUTPUT_t;
 280:C:/Users/Admin/DaveWorkspaces/XMC4300_PWMTest/Libraries/XMCLib/inc\xmc_dac.h **** 
 281:C:/Users/Admin/DaveWorkspaces/XMC4300_PWMTest/Libraries/XMCLib/inc\xmc_dac.h **** /*******************************************************************************
 282:C:/Users/Admin/DaveWorkspaces/XMC4300_PWMTest/Libraries/XMCLib/inc\xmc_dac.h ****  * DATA STRUCTURES
 283:C:/Users/Admin/DaveWorkspaces/XMC4300_PWMTest/Libraries/XMCLib/inc\xmc_dac.h ****  *******************************************************************************/
 284:C:/Users/Admin/DaveWorkspaces/XMC4300_PWMTest/Libraries/XMCLib/inc\xmc_dac.h **** /**
 285:C:/Users/Admin/DaveWorkspaces/XMC4300_PWMTest/Libraries/XMCLib/inc\xmc_dac.h ****  * DAC peripheral registers configuration.
 286:C:/Users/Admin/DaveWorkspaces/XMC4300_PWMTest/Libraries/XMCLib/inc\xmc_dac.h ****  */
 287:C:/Users/Admin/DaveWorkspaces/XMC4300_PWMTest/Libraries/XMCLib/inc\xmc_dac.h **** typedef struct
 288:C:/Users/Admin/DaveWorkspaces/XMC4300_PWMTest/Libraries/XMCLib/inc\xmc_dac.h **** {
 289:C:/Users/Admin/DaveWorkspaces/XMC4300_PWMTest/Libraries/XMCLib/inc\xmc_dac.h ****   __I  uint32_t  ID;
 290:C:/Users/Admin/DaveWorkspaces/XMC4300_PWMTest/Libraries/XMCLib/inc\xmc_dac.h **** 
 291:C:/Users/Admin/DaveWorkspaces/XMC4300_PWMTest/Libraries/XMCLib/inc\xmc_dac.h ****   struct
 292:C:/Users/Admin/DaveWorkspaces/XMC4300_PWMTest/Libraries/XMCLib/inc\xmc_dac.h ****   {
 293:C:/Users/Admin/DaveWorkspaces/XMC4300_PWMTest/Libraries/XMCLib/inc\xmc_dac.h ****      __IO uint32_t low;
 294:C:/Users/Admin/DaveWorkspaces/XMC4300_PWMTest/Libraries/XMCLib/inc\xmc_dac.h ****      __IO uint32_t high;
 295:C:/Users/Admin/DaveWorkspaces/XMC4300_PWMTest/Libraries/XMCLib/inc\xmc_dac.h ****   } DACCFG[XMC_DAC_NO_CHANNELS];
 296:C:/Users/Admin/DaveWorkspaces/XMC4300_PWMTest/Libraries/XMCLib/inc\xmc_dac.h **** 
 297:C:/Users/Admin/DaveWorkspaces/XMC4300_PWMTest/Libraries/XMCLib/inc\xmc_dac.h ****   __IO uint32_t DACDATA[XMC_DAC_NO_CHANNELS];
 298:C:/Users/Admin/DaveWorkspaces/XMC4300_PWMTest/Libraries/XMCLib/inc\xmc_dac.h ****   __IO uint32_t DAC01DATA;
 299:C:/Users/Admin/DaveWorkspaces/XMC4300_PWMTest/Libraries/XMCLib/inc\xmc_dac.h **** 
 300:C:/Users/Admin/DaveWorkspaces/XMC4300_PWMTest/Libraries/XMCLib/inc\xmc_dac.h ****   struct
 301:C:/Users/Admin/DaveWorkspaces/XMC4300_PWMTest/Libraries/XMCLib/inc\xmc_dac.h ****   {
 302:C:/Users/Admin/DaveWorkspaces/XMC4300_PWMTest/Libraries/XMCLib/inc\xmc_dac.h ****      __IO uint32_t low;
 303:C:/Users/Admin/DaveWorkspaces/XMC4300_PWMTest/Libraries/XMCLib/inc\xmc_dac.h ****      __IO uint32_t high;
 304:C:/Users/Admin/DaveWorkspaces/XMC4300_PWMTest/Libraries/XMCLib/inc\xmc_dac.h ****   } DACPAT[XMC_DAC_NO_CHANNELS];
 305:C:/Users/Admin/DaveWorkspaces/XMC4300_PWMTest/Libraries/XMCLib/inc\xmc_dac.h **** 
 306:C:/Users/Admin/DaveWorkspaces/XMC4300_PWMTest/Libraries/XMCLib/inc\xmc_dac.h **** } XMC_DAC_t;
 307:C:/Users/Admin/DaveWorkspaces/XMC4300_PWMTest/Libraries/XMCLib/inc\xmc_dac.h **** 
 308:C:/Users/Admin/DaveWorkspaces/XMC4300_PWMTest/Libraries/XMCLib/inc\xmc_dac.h **** /*Anonymous structure/union guard start*/
 309:C:/Users/Admin/DaveWorkspaces/XMC4300_PWMTest/Libraries/XMCLib/inc\xmc_dac.h **** #if defined(__CC_ARM)
 310:C:/Users/Admin/DaveWorkspaces/XMC4300_PWMTest/Libraries/XMCLib/inc\xmc_dac.h ****   #pragma push
 311:C:/Users/Admin/DaveWorkspaces/XMC4300_PWMTest/Libraries/XMCLib/inc\xmc_dac.h ****   #pragma anon_unions
 312:C:/Users/Admin/DaveWorkspaces/XMC4300_PWMTest/Libraries/XMCLib/inc\xmc_dac.h **** #elif defined(__TASKING__)
 313:C:/Users/Admin/DaveWorkspaces/XMC4300_PWMTest/Libraries/XMCLib/inc\xmc_dac.h ****   #pragma warning 586
 314:C:/Users/Admin/DaveWorkspaces/XMC4300_PWMTest/Libraries/XMCLib/inc\xmc_dac.h **** #endif
 315:C:/Users/Admin/DaveWorkspaces/XMC4300_PWMTest/Libraries/XMCLib/inc\xmc_dac.h **** 
 316:C:/Users/Admin/DaveWorkspaces/XMC4300_PWMTest/Libraries/XMCLib/inc\xmc_dac.h **** /**
 317:C:/Users/Admin/DaveWorkspaces/XMC4300_PWMTest/Libraries/XMCLib/inc\xmc_dac.h ****  * Channel related configuration
 318:C:/Users/Admin/DaveWorkspaces/XMC4300_PWMTest/Libraries/XMCLib/inc\xmc_dac.h ****  */
 319:C:/Users/Admin/DaveWorkspaces/XMC4300_PWMTest/Libraries/XMCLib/inc\xmc_dac.h **** typedef struct XMC_DAC_CH_CONFIG
 320:C:/Users/Admin/DaveWorkspaces/XMC4300_PWMTest/Libraries/XMCLib/inc\xmc_dac.h **** {
 321:C:/Users/Admin/DaveWorkspaces/XMC4300_PWMTest/Libraries/XMCLib/inc\xmc_dac.h ****   union
 322:C:/Users/Admin/DaveWorkspaces/XMC4300_PWMTest/Libraries/XMCLib/inc\xmc_dac.h ****   {
 323:C:/Users/Admin/DaveWorkspaces/XMC4300_PWMTest/Libraries/XMCLib/inc\xmc_dac.h ****   struct
 324:C:/Users/Admin/DaveWorkspaces/XMC4300_PWMTest/Libraries/XMCLib/inc\xmc_dac.h ****   {
 325:C:/Users/Admin/DaveWorkspaces/XMC4300_PWMTest/Libraries/XMCLib/inc\xmc_dac.h ****     uint32_t :23;                /**< Not used bits */
 326:C:/Users/Admin/DaveWorkspaces/XMC4300_PWMTest/Libraries/XMCLib/inc\xmc_dac.h ****     uint32_t data_type:1;        /**< input data type - unsigned / signed */
 327:C:/Users/Admin/DaveWorkspaces/XMC4300_PWMTest/Libraries/XMCLib/inc\xmc_dac.h ****     uint32_t :4;                 /**< Not used bits */
 328:C:/Users/Admin/DaveWorkspaces/XMC4300_PWMTest/Libraries/XMCLib/inc\xmc_dac.h ****     uint32_t output_negation:1;  /**< Negation of the output waveform enabled/disabled */
 329:C:/Users/Admin/DaveWorkspaces/XMC4300_PWMTest/Libraries/XMCLib/inc\xmc_dac.h ****     uint32_t :3;
 330:C:/Users/Admin/DaveWorkspaces/XMC4300_PWMTest/Libraries/XMCLib/inc\xmc_dac.h ****   };
 331:C:/Users/Admin/DaveWorkspaces/XMC4300_PWMTest/Libraries/XMCLib/inc\xmc_dac.h ****   uint32_t cfg0;
 332:C:/Users/Admin/DaveWorkspaces/XMC4300_PWMTest/Libraries/XMCLib/inc\xmc_dac.h ****   };
 333:C:/Users/Admin/DaveWorkspaces/XMC4300_PWMTest/Libraries/XMCLib/inc\xmc_dac.h ****   union
 334:C:/Users/Admin/DaveWorkspaces/XMC4300_PWMTest/Libraries/XMCLib/inc\xmc_dac.h ****   {
 335:C:/Users/Admin/DaveWorkspaces/XMC4300_PWMTest/Libraries/XMCLib/inc\xmc_dac.h ****   struct
 336:C:/Users/Admin/DaveWorkspaces/XMC4300_PWMTest/Libraries/XMCLib/inc\xmc_dac.h ****   {
 337:C:/Users/Admin/DaveWorkspaces/XMC4300_PWMTest/Libraries/XMCLib/inc\xmc_dac.h ****     uint32_t output_scale:4;  /**< Scale value of type XMC_DAC_CH_OUTPUT_SCALE_t. It includes scali
 338:C:/Users/Admin/DaveWorkspaces/XMC4300_PWMTest/Libraries/XMCLib/inc\xmc_dac.h ****     uint32_t output_offset:8; /**< offset value */
 339:C:/Users/Admin/DaveWorkspaces/XMC4300_PWMTest/Libraries/XMCLib/inc\xmc_dac.h ****     uint32_t :20;
 340:C:/Users/Admin/DaveWorkspaces/XMC4300_PWMTest/Libraries/XMCLib/inc\xmc_dac.h ****   };
 341:C:/Users/Admin/DaveWorkspaces/XMC4300_PWMTest/Libraries/XMCLib/inc\xmc_dac.h ****   uint32_t cfg1;
 342:C:/Users/Admin/DaveWorkspaces/XMC4300_PWMTest/Libraries/XMCLib/inc\xmc_dac.h ****   };
 343:C:/Users/Admin/DaveWorkspaces/XMC4300_PWMTest/Libraries/XMCLib/inc\xmc_dac.h **** } XMC_DAC_CH_CONFIG_t;
 344:C:/Users/Admin/DaveWorkspaces/XMC4300_PWMTest/Libraries/XMCLib/inc\xmc_dac.h **** /*Anonymous structure/union guard end*/
 345:C:/Users/Admin/DaveWorkspaces/XMC4300_PWMTest/Libraries/XMCLib/inc\xmc_dac.h **** #if defined(__CC_ARM)
 346:C:/Users/Admin/DaveWorkspaces/XMC4300_PWMTest/Libraries/XMCLib/inc\xmc_dac.h ****   #pragma pop
 347:C:/Users/Admin/DaveWorkspaces/XMC4300_PWMTest/Libraries/XMCLib/inc\xmc_dac.h **** #elif defined(__TASKING__)
 348:C:/Users/Admin/DaveWorkspaces/XMC4300_PWMTest/Libraries/XMCLib/inc\xmc_dac.h ****   #pragma warning restore
 349:C:/Users/Admin/DaveWorkspaces/XMC4300_PWMTest/Libraries/XMCLib/inc\xmc_dac.h **** #endif
 350:C:/Users/Admin/DaveWorkspaces/XMC4300_PWMTest/Libraries/XMCLib/inc\xmc_dac.h **** /*******************************************************************************
 351:C:/Users/Admin/DaveWorkspaces/XMC4300_PWMTest/Libraries/XMCLib/inc\xmc_dac.h ****  * API PROTOTYPES
 352:C:/Users/Admin/DaveWorkspaces/XMC4300_PWMTest/Libraries/XMCLib/inc\xmc_dac.h ****  *******************************************************************************/
 353:C:/Users/Admin/DaveWorkspaces/XMC4300_PWMTest/Libraries/XMCLib/inc\xmc_dac.h **** 
 354:C:/Users/Admin/DaveWorkspaces/XMC4300_PWMTest/Libraries/XMCLib/inc\xmc_dac.h **** #ifdef __cplusplus
 355:C:/Users/Admin/DaveWorkspaces/XMC4300_PWMTest/Libraries/XMCLib/inc\xmc_dac.h **** extern "C" {
 356:C:/Users/Admin/DaveWorkspaces/XMC4300_PWMTest/Libraries/XMCLib/inc\xmc_dac.h **** #endif
 357:C:/Users/Admin/DaveWorkspaces/XMC4300_PWMTest/Libraries/XMCLib/inc\xmc_dac.h **** 
 358:C:/Users/Admin/DaveWorkspaces/XMC4300_PWMTest/Libraries/XMCLib/inc\xmc_dac.h **** /**
 359:C:/Users/Admin/DaveWorkspaces/XMC4300_PWMTest/Libraries/XMCLib/inc\xmc_dac.h ****  * @param dac Pointer to an instance of DAC module
 360:C:/Users/Admin/DaveWorkspaces/XMC4300_PWMTest/Libraries/XMCLib/inc\xmc_dac.h ****  *
 361:C:/Users/Admin/DaveWorkspaces/XMC4300_PWMTest/Libraries/XMCLib/inc\xmc_dac.h ****  * @return None
 362:C:/Users/Admin/DaveWorkspaces/XMC4300_PWMTest/Libraries/XMCLib/inc\xmc_dac.h ****  *
 363:C:/Users/Admin/DaveWorkspaces/XMC4300_PWMTest/Libraries/XMCLib/inc\xmc_dac.h ****  * \par<b>Description:</b><br>
 364:C:/Users/Admin/DaveWorkspaces/XMC4300_PWMTest/Libraries/XMCLib/inc\xmc_dac.h ****  * Enables DAC clock and releases DAC reset.<br>
 365:C:/Users/Admin/DaveWorkspaces/XMC4300_PWMTest/Libraries/XMCLib/inc\xmc_dac.h ****  *
 366:C:/Users/Admin/DaveWorkspaces/XMC4300_PWMTest/Libraries/XMCLib/inc\xmc_dac.h ****  * \par
 367:C:/Users/Admin/DaveWorkspaces/XMC4300_PWMTest/Libraries/XMCLib/inc\xmc_dac.h ****  * Enabling DAC is the first step of DAC initialisation. This API is called by XMC_DAC_CH_Init().
 368:C:/Users/Admin/DaveWorkspaces/XMC4300_PWMTest/Libraries/XMCLib/inc\xmc_dac.h ****  * DAC clock is enabled by setting \a DAC bit of \a CGATCLR1 register. DAC reset is released by set
 369:C:/Users/Admin/DaveWorkspaces/XMC4300_PWMTest/Libraries/XMCLib/inc\xmc_dac.h ****  *
 370:C:/Users/Admin/DaveWorkspaces/XMC4300_PWMTest/Libraries/XMCLib/inc\xmc_dac.h ****  *
 371:C:/Users/Admin/DaveWorkspaces/XMC4300_PWMTest/Libraries/XMCLib/inc\xmc_dac.h ****  * \par<b>Related APIs:</b><BR>
 372:C:/Users/Admin/DaveWorkspaces/XMC4300_PWMTest/Libraries/XMCLib/inc\xmc_dac.h ****  * XMC_DAC_IsEnabled(), XMC_DAC_Disable(), XMC_DAC_CH_Init()\n\n\n
 373:C:/Users/Admin/DaveWorkspaces/XMC4300_PWMTest/Libraries/XMCLib/inc\xmc_dac.h ****  *
 374:C:/Users/Admin/DaveWorkspaces/XMC4300_PWMTest/Libraries/XMCLib/inc\xmc_dac.h ****  */
 375:C:/Users/Admin/DaveWorkspaces/XMC4300_PWMTest/Libraries/XMCLib/inc\xmc_dac.h **** void XMC_DAC_Enable(XMC_DAC_t *const dac);
 376:C:/Users/Admin/DaveWorkspaces/XMC4300_PWMTest/Libraries/XMCLib/inc\xmc_dac.h **** 
 377:C:/Users/Admin/DaveWorkspaces/XMC4300_PWMTest/Libraries/XMCLib/inc\xmc_dac.h **** /**
 378:C:/Users/Admin/DaveWorkspaces/XMC4300_PWMTest/Libraries/XMCLib/inc\xmc_dac.h ****  * @param dac Pointer to an instance of DAC module
 379:C:/Users/Admin/DaveWorkspaces/XMC4300_PWMTest/Libraries/XMCLib/inc\xmc_dac.h ****  *
 380:C:/Users/Admin/DaveWorkspaces/XMC4300_PWMTest/Libraries/XMCLib/inc\xmc_dac.h ****  * @return None
 381:C:/Users/Admin/DaveWorkspaces/XMC4300_PWMTest/Libraries/XMCLib/inc\xmc_dac.h ****  *
 382:C:/Users/Admin/DaveWorkspaces/XMC4300_PWMTest/Libraries/XMCLib/inc\xmc_dac.h ****  * \par<b>Description:</b><br>
 383:C:/Users/Admin/DaveWorkspaces/XMC4300_PWMTest/Libraries/XMCLib/inc\xmc_dac.h ****  * Disables DAC clock and resets DAC.
 384:C:/Users/Admin/DaveWorkspaces/XMC4300_PWMTest/Libraries/XMCLib/inc\xmc_dac.h ****  *
 385:C:/Users/Admin/DaveWorkspaces/XMC4300_PWMTest/Libraries/XMCLib/inc\xmc_dac.h ****  * \par
 386:C:/Users/Admin/DaveWorkspaces/XMC4300_PWMTest/Libraries/XMCLib/inc\xmc_dac.h ****  * DAC clock is disabled by setting \a DAC bit of \a CGATSET1 register. DAC is reset by setting \a 
 387:C:/Users/Admin/DaveWorkspaces/XMC4300_PWMTest/Libraries/XMCLib/inc\xmc_dac.h ****  *
 388:C:/Users/Admin/DaveWorkspaces/XMC4300_PWMTest/Libraries/XMCLib/inc\xmc_dac.h ****  * \par<b>Related APIs:</b><BR>
 389:C:/Users/Admin/DaveWorkspaces/XMC4300_PWMTest/Libraries/XMCLib/inc\xmc_dac.h ****  * XMC_DAC_IsEnabled(), XMC_DAC_Enable()\n\n\n
 390:C:/Users/Admin/DaveWorkspaces/XMC4300_PWMTest/Libraries/XMCLib/inc\xmc_dac.h ****  *
 391:C:/Users/Admin/DaveWorkspaces/XMC4300_PWMTest/Libraries/XMCLib/inc\xmc_dac.h ****  */
 392:C:/Users/Admin/DaveWorkspaces/XMC4300_PWMTest/Libraries/XMCLib/inc\xmc_dac.h **** void XMC_DAC_Disable(XMC_DAC_t *const dac);
 393:C:/Users/Admin/DaveWorkspaces/XMC4300_PWMTest/Libraries/XMCLib/inc\xmc_dac.h **** 
 394:C:/Users/Admin/DaveWorkspaces/XMC4300_PWMTest/Libraries/XMCLib/inc\xmc_dac.h **** /**
 395:C:/Users/Admin/DaveWorkspaces/XMC4300_PWMTest/Libraries/XMCLib/inc\xmc_dac.h ****  * @param dac Pointer to an instance of DAC module
 396:C:/Users/Admin/DaveWorkspaces/XMC4300_PWMTest/Libraries/XMCLib/inc\xmc_dac.h ****  *
 397:C:/Users/Admin/DaveWorkspaces/XMC4300_PWMTest/Libraries/XMCLib/inc\xmc_dac.h ****  * @return bool<br>
 398:C:/Users/Admin/DaveWorkspaces/XMC4300_PWMTest/Libraries/XMCLib/inc\xmc_dac.h ****  * true  - if DAC is enabled<br>
 399:C:/Users/Admin/DaveWorkspaces/XMC4300_PWMTest/Libraries/XMCLib/inc\xmc_dac.h ****  * false - if DAC is disabled
 400:C:/Users/Admin/DaveWorkspaces/XMC4300_PWMTest/Libraries/XMCLib/inc\xmc_dac.h ****  *
 401:C:/Users/Admin/DaveWorkspaces/XMC4300_PWMTest/Libraries/XMCLib/inc\xmc_dac.h ****  * \par<b>Description:</b><br>
 402:C:/Users/Admin/DaveWorkspaces/XMC4300_PWMTest/Libraries/XMCLib/inc\xmc_dac.h ****  * Returns the state of the DAC.
 403:C:/Users/Admin/DaveWorkspaces/XMC4300_PWMTest/Libraries/XMCLib/inc\xmc_dac.h ****  *
 404:C:/Users/Admin/DaveWorkspaces/XMC4300_PWMTest/Libraries/XMCLib/inc\xmc_dac.h ****  * \par
 405:C:/Users/Admin/DaveWorkspaces/XMC4300_PWMTest/Libraries/XMCLib/inc\xmc_dac.h ****  * DAC enabled status is determined by referring to \a DACRS bit of \a PRSTAT1 register.
 406:C:/Users/Admin/DaveWorkspaces/XMC4300_PWMTest/Libraries/XMCLib/inc\xmc_dac.h ****  *
 407:C:/Users/Admin/DaveWorkspaces/XMC4300_PWMTest/Libraries/XMCLib/inc\xmc_dac.h ****  * \par<b>Related APIs:</b><BR>
 408:C:/Users/Admin/DaveWorkspaces/XMC4300_PWMTest/Libraries/XMCLib/inc\xmc_dac.h ****  * XMC_DAC_Enable(), XMC_DAC_Disable()\n\n\n
 409:C:/Users/Admin/DaveWorkspaces/XMC4300_PWMTest/Libraries/XMCLib/inc\xmc_dac.h ****  *
 410:C:/Users/Admin/DaveWorkspaces/XMC4300_PWMTest/Libraries/XMCLib/inc\xmc_dac.h ****  */
 411:C:/Users/Admin/DaveWorkspaces/XMC4300_PWMTest/Libraries/XMCLib/inc\xmc_dac.h **** bool XMC_DAC_IsEnabled(const XMC_DAC_t *const dac);
 412:C:/Users/Admin/DaveWorkspaces/XMC4300_PWMTest/Libraries/XMCLib/inc\xmc_dac.h **** 
 413:C:/Users/Admin/DaveWorkspaces/XMC4300_PWMTest/Libraries/XMCLib/inc\xmc_dac.h **** /**
 414:C:/Users/Admin/DaveWorkspaces/XMC4300_PWMTest/Libraries/XMCLib/inc\xmc_dac.h ****  * @param dac Pointer to an instance of DAC module
 415:C:/Users/Admin/DaveWorkspaces/XMC4300_PWMTest/Libraries/XMCLib/inc\xmc_dac.h ****  *
 416:C:/Users/Admin/DaveWorkspaces/XMC4300_PWMTest/Libraries/XMCLib/inc\xmc_dac.h ****  * @return None
 417:C:/Users/Admin/DaveWorkspaces/XMC4300_PWMTest/Libraries/XMCLib/inc\xmc_dac.h ****  *
 418:C:/Users/Admin/DaveWorkspaces/XMC4300_PWMTest/Libraries/XMCLib/inc\xmc_dac.h ****  * \par<b>Description:</b><br>
 419:C:/Users/Admin/DaveWorkspaces/XMC4300_PWMTest/Libraries/XMCLib/inc\xmc_dac.h ****  * DAC switches to Simultaneous data mode from Independent data mode.
 420:C:/Users/Admin/DaveWorkspaces/XMC4300_PWMTest/Libraries/XMCLib/inc\xmc_dac.h ****  *
 421:C:/Users/Admin/DaveWorkspaces/XMC4300_PWMTest/Libraries/XMCLib/inc\xmc_dac.h ****  * \par
 422:C:/Users/Admin/DaveWorkspaces/XMC4300_PWMTest/Libraries/XMCLib/inc\xmc_dac.h ****  * Independent data mode is the default data mode.
 423:C:/Users/Admin/DaveWorkspaces/XMC4300_PWMTest/Libraries/XMCLib/inc\xmc_dac.h ****  * Simultaneous data mode is enabled by setting \a DATMOD bit of \a DAC0CFG1 register.
 424:C:/Users/Admin/DaveWorkspaces/XMC4300_PWMTest/Libraries/XMCLib/inc\xmc_dac.h ****  *
 425:C:/Users/Admin/DaveWorkspaces/XMC4300_PWMTest/Libraries/XMCLib/inc\xmc_dac.h ****  * \par<b>Note:</b><br>
 426:C:/Users/Admin/DaveWorkspaces/XMC4300_PWMTest/Libraries/XMCLib/inc\xmc_dac.h ****  * Set channel 0 and channel 1 to Data mode before calling this API.
 427:C:/Users/Admin/DaveWorkspaces/XMC4300_PWMTest/Libraries/XMCLib/inc\xmc_dac.h ****  *
 428:C:/Users/Admin/DaveWorkspaces/XMC4300_PWMTest/Libraries/XMCLib/inc\xmc_dac.h ****  * \par<b>Related APIs:</b><BR>
 429:C:/Users/Admin/DaveWorkspaces/XMC4300_PWMTest/Libraries/XMCLib/inc\xmc_dac.h ****  * XMC_DAC_CH_StartSingleValueMode(), XMC_DAC_CH_StartDataMode(), XMC_DAC_SimultaneousWrite(), XMC_
 430:C:/Users/Admin/DaveWorkspaces/XMC4300_PWMTest/Libraries/XMCLib/inc\xmc_dac.h ****  *
 431:C:/Users/Admin/DaveWorkspaces/XMC4300_PWMTest/Libraries/XMCLib/inc\xmc_dac.h ****  */
 432:C:/Users/Admin/DaveWorkspaces/XMC4300_PWMTest/Libraries/XMCLib/inc\xmc_dac.h **** __STATIC_INLINE void XMC_DAC_EnableSimultaneousDataMode(XMC_DAC_t *const dac)
 433:C:/Users/Admin/DaveWorkspaces/XMC4300_PWMTest/Libraries/XMCLib/inc\xmc_dac.h **** {
 434:C:/Users/Admin/DaveWorkspaces/XMC4300_PWMTest/Libraries/XMCLib/inc\xmc_dac.h ****   XMC_ASSERT("XMC_DAC_EnableSimultaneousDataMode: dac parameter not valid\n", XMC_DAC_IS_DAC_VALID(
 435:C:/Users/Admin/DaveWorkspaces/XMC4300_PWMTest/Libraries/XMCLib/inc\xmc_dac.h ****   
 436:C:/Users/Admin/DaveWorkspaces/XMC4300_PWMTest/Libraries/XMCLib/inc\xmc_dac.h ****   dac->DACCFG[0].high |= DAC_DAC0CFG1_DATMOD_Msk;
 437:C:/Users/Admin/DaveWorkspaces/XMC4300_PWMTest/Libraries/XMCLib/inc\xmc_dac.h **** }
 438:C:/Users/Admin/DaveWorkspaces/XMC4300_PWMTest/Libraries/XMCLib/inc\xmc_dac.h **** 
 439:C:/Users/Admin/DaveWorkspaces/XMC4300_PWMTest/Libraries/XMCLib/inc\xmc_dac.h **** /**
 440:C:/Users/Admin/DaveWorkspaces/XMC4300_PWMTest/Libraries/XMCLib/inc\xmc_dac.h ****  * @param dac Pointer to an instance of DAC module
 441:C:/Users/Admin/DaveWorkspaces/XMC4300_PWMTest/Libraries/XMCLib/inc\xmc_dac.h ****  *
 442:C:/Users/Admin/DaveWorkspaces/XMC4300_PWMTest/Libraries/XMCLib/inc\xmc_dac.h ****  * @return None
 443:C:/Users/Admin/DaveWorkspaces/XMC4300_PWMTest/Libraries/XMCLib/inc\xmc_dac.h ****  *
 444:C:/Users/Admin/DaveWorkspaces/XMC4300_PWMTest/Libraries/XMCLib/inc\xmc_dac.h ****  * \par<b>Description:</b><br>
 445:C:/Users/Admin/DaveWorkspaces/XMC4300_PWMTest/Libraries/XMCLib/inc\xmc_dac.h ****  * DAC switches to independent data mode from simultaneous Data mode.
 446:C:/Users/Admin/DaveWorkspaces/XMC4300_PWMTest/Libraries/XMCLib/inc\xmc_dac.h ****  *
 447:C:/Users/Admin/DaveWorkspaces/XMC4300_PWMTest/Libraries/XMCLib/inc\xmc_dac.h ****  * \par
 448:C:/Users/Admin/DaveWorkspaces/XMC4300_PWMTest/Libraries/XMCLib/inc\xmc_dac.h ****  * Independent data mode is the default data mode.
 449:C:/Users/Admin/DaveWorkspaces/XMC4300_PWMTest/Libraries/XMCLib/inc\xmc_dac.h ****  * Simultaneous data mode is disabled by clearing \a DATMOD bit of \a DAC0CFG1 register.
 450:C:/Users/Admin/DaveWorkspaces/XMC4300_PWMTest/Libraries/XMCLib/inc\xmc_dac.h ****  *
 451:C:/Users/Admin/DaveWorkspaces/XMC4300_PWMTest/Libraries/XMCLib/inc\xmc_dac.h ****  * \par<b>Related APIs:</b><BR>
 452:C:/Users/Admin/DaveWorkspaces/XMC4300_PWMTest/Libraries/XMCLib/inc\xmc_dac.h ****  * XMC_DAC_CH_StartDataMode(), XMC_DAC_EnableSimultaneousDataMode()\n\n\n
 453:C:/Users/Admin/DaveWorkspaces/XMC4300_PWMTest/Libraries/XMCLib/inc\xmc_dac.h ****  *
 454:C:/Users/Admin/DaveWorkspaces/XMC4300_PWMTest/Libraries/XMCLib/inc\xmc_dac.h ****  */
 455:C:/Users/Admin/DaveWorkspaces/XMC4300_PWMTest/Libraries/XMCLib/inc\xmc_dac.h **** __STATIC_INLINE void XMC_DAC_DisableSimultaneousDataMode(XMC_DAC_t *const dac)
 456:C:/Users/Admin/DaveWorkspaces/XMC4300_PWMTest/Libraries/XMCLib/inc\xmc_dac.h **** {
 457:C:/Users/Admin/DaveWorkspaces/XMC4300_PWMTest/Libraries/XMCLib/inc\xmc_dac.h ****   XMC_ASSERT("XMC_DAC_DisableSimultaneousDataMode: dac parameter not valid\n", XMC_DAC_IS_DAC_VALID
 458:C:/Users/Admin/DaveWorkspaces/XMC4300_PWMTest/Libraries/XMCLib/inc\xmc_dac.h ****   
 459:C:/Users/Admin/DaveWorkspaces/XMC4300_PWMTest/Libraries/XMCLib/inc\xmc_dac.h ****   dac->DACCFG[0].high &= ~DAC_DAC0CFG1_DATMOD_Msk;
 460:C:/Users/Admin/DaveWorkspaces/XMC4300_PWMTest/Libraries/XMCLib/inc\xmc_dac.h **** }
 461:C:/Users/Admin/DaveWorkspaces/XMC4300_PWMTest/Libraries/XMCLib/inc\xmc_dac.h **** 
 462:C:/Users/Admin/DaveWorkspaces/XMC4300_PWMTest/Libraries/XMCLib/inc\xmc_dac.h **** /**
 463:C:/Users/Admin/DaveWorkspaces/XMC4300_PWMTest/Libraries/XMCLib/inc\xmc_dac.h ****  * @param dac Pointer to an instance of DAC module
 464:C:/Users/Admin/DaveWorkspaces/XMC4300_PWMTest/Libraries/XMCLib/inc\xmc_dac.h ****  * @param data0 Data for DAC channel 0 [0-4095]
 465:C:/Users/Admin/DaveWorkspaces/XMC4300_PWMTest/Libraries/XMCLib/inc\xmc_dac.h ****  * @param data1 Data for DAC channel 1 [0-4095]
 466:C:/Users/Admin/DaveWorkspaces/XMC4300_PWMTest/Libraries/XMCLib/inc\xmc_dac.h ****  *
 467:C:/Users/Admin/DaveWorkspaces/XMC4300_PWMTest/Libraries/XMCLib/inc\xmc_dac.h ****  * @return None
 468:C:/Users/Admin/DaveWorkspaces/XMC4300_PWMTest/Libraries/XMCLib/inc\xmc_dac.h ****  *
 469:C:/Users/Admin/DaveWorkspaces/XMC4300_PWMTest/Libraries/XMCLib/inc\xmc_dac.h ****  * \par<b>Description:</b><br>
 470:C:/Users/Admin/DaveWorkspaces/XMC4300_PWMTest/Libraries/XMCLib/inc\xmc_dac.h ****  * The data (\e data0 & \e data1) to be converted by channel 0 & channel 1 are updated to \a DATA1 
 471:C:/Users/Admin/DaveWorkspaces/XMC4300_PWMTest/Libraries/XMCLib/inc\xmc_dac.h ****  * data0 and data1 have the range of [0-4095].
 472:C:/Users/Admin/DaveWorkspaces/XMC4300_PWMTest/Libraries/XMCLib/inc\xmc_dac.h ****  *
 473:C:/Users/Admin/DaveWorkspaces/XMC4300_PWMTest/Libraries/XMCLib/inc\xmc_dac.h ****  * \par<b>Note:</b><br>
 474:C:/Users/Admin/DaveWorkspaces/XMC4300_PWMTest/Libraries/XMCLib/inc\xmc_dac.h ****  * Channel 0 and Channel 1 should be set to simultaneous data mode before calling this API.
 475:C:/Users/Admin/DaveWorkspaces/XMC4300_PWMTest/Libraries/XMCLib/inc\xmc_dac.h ****  *
 476:C:/Users/Admin/DaveWorkspaces/XMC4300_PWMTest/Libraries/XMCLib/inc\xmc_dac.h ****  * \par<b>Related APIs:</b><BR>
 477:C:/Users/Admin/DaveWorkspaces/XMC4300_PWMTest/Libraries/XMCLib/inc\xmc_dac.h ****  * XMC_DAC_EnableSimultaneousDataMode()\n\n\n
 478:C:/Users/Admin/DaveWorkspaces/XMC4300_PWMTest/Libraries/XMCLib/inc\xmc_dac.h ****  *
 479:C:/Users/Admin/DaveWorkspaces/XMC4300_PWMTest/Libraries/XMCLib/inc\xmc_dac.h ****  */
 480:C:/Users/Admin/DaveWorkspaces/XMC4300_PWMTest/Libraries/XMCLib/inc\xmc_dac.h **** __STATIC_INLINE void XMC_DAC_SimultaneousWrite(XMC_DAC_t *const dac, const uint16_t data0, const ui
 481:C:/Users/Admin/DaveWorkspaces/XMC4300_PWMTest/Libraries/XMCLib/inc\xmc_dac.h **** {
 482:C:/Users/Admin/DaveWorkspaces/XMC4300_PWMTest/Libraries/XMCLib/inc\xmc_dac.h ****   XMC_ASSERT("XMC_DAC_SimultaneousWrite: dac parameter not valid\n", XMC_DAC_IS_DAC_VALID(dac));
 483:C:/Users/Admin/DaveWorkspaces/XMC4300_PWMTest/Libraries/XMCLib/inc\xmc_dac.h ****   
 484:C:/Users/Admin/DaveWorkspaces/XMC4300_PWMTest/Libraries/XMCLib/inc\xmc_dac.h ****   dac->DAC01DATA = (data0 << DAC_DAC01DATA_DATA0_Pos) | (data1 << DAC_DAC01DATA_DATA1_Pos);
 485:C:/Users/Admin/DaveWorkspaces/XMC4300_PWMTest/Libraries/XMCLib/inc\xmc_dac.h **** }
 486:C:/Users/Admin/DaveWorkspaces/XMC4300_PWMTest/Libraries/XMCLib/inc\xmc_dac.h **** 
 487:C:/Users/Admin/DaveWorkspaces/XMC4300_PWMTest/Libraries/XMCLib/inc\xmc_dac.h **** /**
 488:C:/Users/Admin/DaveWorkspaces/XMC4300_PWMTest/Libraries/XMCLib/inc\xmc_dac.h ****  * @param dac Pointer to an instance of DAC module
 489:C:/Users/Admin/DaveWorkspaces/XMC4300_PWMTest/Libraries/XMCLib/inc\xmc_dac.h ****  * @param channel DAC channel number
 490:C:/Users/Admin/DaveWorkspaces/XMC4300_PWMTest/Libraries/XMCLib/inc\xmc_dac.h ****  * @param config Pointer to the DAC channel configuration structure
 491:C:/Users/Admin/DaveWorkspaces/XMC4300_PWMTest/Libraries/XMCLib/inc\xmc_dac.h ****  *
 492:C:/Users/Admin/DaveWorkspaces/XMC4300_PWMTest/Libraries/XMCLib/inc\xmc_dac.h ****  * @return None
 493:C:/Users/Admin/DaveWorkspaces/XMC4300_PWMTest/Libraries/XMCLib/inc\xmc_dac.h ****  *
 494:C:/Users/Admin/DaveWorkspaces/XMC4300_PWMTest/Libraries/XMCLib/inc\xmc_dac.h ****  * \par<b>Description:</b><br>
 495:C:/Users/Admin/DaveWorkspaces/XMC4300_PWMTest/Libraries/XMCLib/inc\xmc_dac.h ****  * Initialises and configures the DAC \e channel with the configuration date pointed by \e config.
 496:C:/Users/Admin/DaveWorkspaces/XMC4300_PWMTest/Libraries/XMCLib/inc\xmc_dac.h ****  *
 497:C:/Users/Admin/DaveWorkspaces/XMC4300_PWMTest/Libraries/XMCLib/inc\xmc_dac.h ****  * \par
 498:C:/Users/Admin/DaveWorkspaces/XMC4300_PWMTest/Libraries/XMCLib/inc\xmc_dac.h ****  * DAC channel is initialised by configuring the registers \a DAC0CFG0 and \a DAC0CFG1 registers (f
 499:C:/Users/Admin/DaveWorkspaces/XMC4300_PWMTest/Libraries/XMCLib/inc\xmc_dac.h ****  * It enables the channel output by calling XMC_DAC_CH_EnableOutput().
 500:C:/Users/Admin/DaveWorkspaces/XMC4300_PWMTest/Libraries/XMCLib/inc\xmc_dac.h ****  *
 501:C:/Users/Admin/DaveWorkspaces/XMC4300_PWMTest/Libraries/XMCLib/inc\xmc_dac.h ****  */
 502:C:/Users/Admin/DaveWorkspaces/XMC4300_PWMTest/Libraries/XMCLib/inc\xmc_dac.h **** void XMC_DAC_CH_Init(XMC_DAC_t *const dac, const uint8_t channel, const XMC_DAC_CH_CONFIG_t *const 
 503:C:/Users/Admin/DaveWorkspaces/XMC4300_PWMTest/Libraries/XMCLib/inc\xmc_dac.h **** 
 504:C:/Users/Admin/DaveWorkspaces/XMC4300_PWMTest/Libraries/XMCLib/inc\xmc_dac.h **** /**
 505:C:/Users/Admin/DaveWorkspaces/XMC4300_PWMTest/Libraries/XMCLib/inc\xmc_dac.h ****  * @param dac Pointer to an instance of DAC module
 506:C:/Users/Admin/DaveWorkspaces/XMC4300_PWMTest/Libraries/XMCLib/inc\xmc_dac.h ****  * @param channel DAC channel number
 507:C:/Users/Admin/DaveWorkspaces/XMC4300_PWMTest/Libraries/XMCLib/inc\xmc_dac.h ****  *
 508:C:/Users/Admin/DaveWorkspaces/XMC4300_PWMTest/Libraries/XMCLib/inc\xmc_dac.h ****  * @return None
 509:C:/Users/Admin/DaveWorkspaces/XMC4300_PWMTest/Libraries/XMCLib/inc\xmc_dac.h ****  *
 510:C:/Users/Admin/DaveWorkspaces/XMC4300_PWMTest/Libraries/XMCLib/inc\xmc_dac.h ****  * \par<b>Description:</b><br>
 511:C:/Users/Admin/DaveWorkspaces/XMC4300_PWMTest/Libraries/XMCLib/inc\xmc_dac.h ****  * Channel \a channel output is enabled by setting the \a ANAEN bit of \a DAC0CFG1 register (for ch
 512:C:/Users/Admin/DaveWorkspaces/XMC4300_PWMTest/Libraries/XMCLib/inc\xmc_dac.h ****  *
 513:C:/Users/Admin/DaveWorkspaces/XMC4300_PWMTest/Libraries/XMCLib/inc\xmc_dac.h ****  * \par<b>Note:</b><BR>
 514:C:/Users/Admin/DaveWorkspaces/XMC4300_PWMTest/Libraries/XMCLib/inc\xmc_dac.h ****  * \a tSTARTUP time for DAC analog output starts after the \a ANAEN bit is set to one.
 515:C:/Users/Admin/DaveWorkspaces/XMC4300_PWMTest/Libraries/XMCLib/inc\xmc_dac.h ****  * After the expiry of the startup time the default value is driven to DAC output and a new value c
 516:C:/Users/Admin/DaveWorkspaces/XMC4300_PWMTest/Libraries/XMCLib/inc\xmc_dac.h ****  *
 517:C:/Users/Admin/DaveWorkspaces/XMC4300_PWMTest/Libraries/XMCLib/inc\xmc_dac.h ****  * \par<b>Related APIs:</b><BR>
 518:C:/Users/Admin/DaveWorkspaces/XMC4300_PWMTest/Libraries/XMCLib/inc\xmc_dac.h ****  * XMC_DAC_CH_DisableOutput(), XMC_DAC_CH_IsOutputEnabled()\n\n\n
 519:C:/Users/Admin/DaveWorkspaces/XMC4300_PWMTest/Libraries/XMCLib/inc\xmc_dac.h ****  *
 520:C:/Users/Admin/DaveWorkspaces/XMC4300_PWMTest/Libraries/XMCLib/inc\xmc_dac.h ****  */
 521:C:/Users/Admin/DaveWorkspaces/XMC4300_PWMTest/Libraries/XMCLib/inc\xmc_dac.h **** __STATIC_INLINE void XMC_DAC_CH_EnableOutput(XMC_DAC_t *const dac, const uint8_t channel)
 522:C:/Users/Admin/DaveWorkspaces/XMC4300_PWMTest/Libraries/XMCLib/inc\xmc_dac.h **** {
  27              	 .loc 1 522 0
  28              	 .cfi_startproc
  29              	 
  30              	 
  31              	 
  32 0000 80B4     	 push {r7}
  33              	.LCFI0:
  34              	 .cfi_def_cfa_offset 4
  35              	 .cfi_offset 7,-4
  36 0002 83B0     	 sub sp,sp,#12
  37              	.LCFI1:
  38              	 .cfi_def_cfa_offset 16
  39 0004 00AF     	 add r7,sp,#0
  40              	.LCFI2:
  41              	 .cfi_def_cfa_register 7
  42 0006 7860     	 str r0,[r7,#4]
  43 0008 0B46     	 mov r3,r1
  44 000a FB70     	 strb r3,[r7,#3]
 523:C:/Users/Admin/DaveWorkspaces/XMC4300_PWMTest/Libraries/XMCLib/inc\xmc_dac.h ****   XMC_ASSERT("XMC_DAC_CH_EnableOutput: dac parameter not valid\n", XMC_DAC_IS_DAC_VALID(dac));
 524:C:/Users/Admin/DaveWorkspaces/XMC4300_PWMTest/Libraries/XMCLib/inc\xmc_dac.h ****   XMC_ASSERT("XMC_DAC_CH_EnableOutput: channel parameter not valid\n", XMC_DAC_IS_CHANNEL_VALID(cha
 525:C:/Users/Admin/DaveWorkspaces/XMC4300_PWMTest/Libraries/XMCLib/inc\xmc_dac.h ****   
 526:C:/Users/Admin/DaveWorkspaces/XMC4300_PWMTest/Libraries/XMCLib/inc\xmc_dac.h ****   dac->DACCFG[channel].high |= DAC_DAC0CFG1_ANAEN_Msk;
  45              	 .loc 1 526 0
  46 000c F878     	 ldrb r0,[r7,#3]
  47 000e FB78     	 ldrb r3,[r7,#3]
  48 0010 7A68     	 ldr r2,[r7,#4]
  49 0012 DB00     	 lsls r3,r3,#3
  50 0014 1344     	 add r3,r3,r2
  51 0016 9B68     	 ldr r3,[r3,#8]
  52 0018 43F08072 	 orr r2,r3,#16777216
  53 001c 7968     	 ldr r1,[r7,#4]
  54 001e C300     	 lsls r3,r0,#3
  55 0020 0B44     	 add r3,r3,r1
  56 0022 9A60     	 str r2,[r3,#8]
 527:C:/Users/Admin/DaveWorkspaces/XMC4300_PWMTest/Libraries/XMCLib/inc\xmc_dac.h **** }
  57              	 .loc 1 527 0
  58 0024 0C37     	 adds r7,r7,#12
  59              	.LCFI3:
  60              	 .cfi_def_cfa_offset 4
  61 0026 BD46     	 mov sp,r7
  62              	.LCFI4:
  63              	 .cfi_def_cfa_register 13
  64              	 
  65 0028 5DF8047B 	 ldr r7,[sp],#4
  66              	.LCFI5:
  67              	 .cfi_restore 7
  68              	 .cfi_def_cfa_offset 0
  69 002c 7047     	 bx lr
  70              	 .cfi_endproc
  71              	.LFE140:
  73 002e 00BF     	 .section .text.XMC_DAC_CH_EnablePatternSignOutput,"ax",%progbits
  74              	 .align 2
  75              	 .thumb
  76              	 .thumb_func
  78              	XMC_DAC_CH_EnablePatternSignOutput:
  79              	.LFB144:
 528:C:/Users/Admin/DaveWorkspaces/XMC4300_PWMTest/Libraries/XMCLib/inc\xmc_dac.h **** 
 529:C:/Users/Admin/DaveWorkspaces/XMC4300_PWMTest/Libraries/XMCLib/inc\xmc_dac.h **** /**
 530:C:/Users/Admin/DaveWorkspaces/XMC4300_PWMTest/Libraries/XMCLib/inc\xmc_dac.h ****  * @param dac Pointer to an instance of DAC module
 531:C:/Users/Admin/DaveWorkspaces/XMC4300_PWMTest/Libraries/XMCLib/inc\xmc_dac.h ****  * @param channel DAC channel number
 532:C:/Users/Admin/DaveWorkspaces/XMC4300_PWMTest/Libraries/XMCLib/inc\xmc_dac.h ****  *
 533:C:/Users/Admin/DaveWorkspaces/XMC4300_PWMTest/Libraries/XMCLib/inc\xmc_dac.h ****  * @return None
 534:C:/Users/Admin/DaveWorkspaces/XMC4300_PWMTest/Libraries/XMCLib/inc\xmc_dac.h ****  *
 535:C:/Users/Admin/DaveWorkspaces/XMC4300_PWMTest/Libraries/XMCLib/inc\xmc_dac.h ****  * \par<b>Description:</b><br>
 536:C:/Users/Admin/DaveWorkspaces/XMC4300_PWMTest/Libraries/XMCLib/inc\xmc_dac.h ****  * Channel \a channel output is disabled by clearing the \a ANAEN bit of \a DAC0CFG1 register (for 
 537:C:/Users/Admin/DaveWorkspaces/XMC4300_PWMTest/Libraries/XMCLib/inc\xmc_dac.h ****  *
 538:C:/Users/Admin/DaveWorkspaces/XMC4300_PWMTest/Libraries/XMCLib/inc\xmc_dac.h ****  * \par
 539:C:/Users/Admin/DaveWorkspaces/XMC4300_PWMTest/Libraries/XMCLib/inc\xmc_dac.h ****  * A call to this API stops driving the converted digital input to its output.
 540:C:/Users/Admin/DaveWorkspaces/XMC4300_PWMTest/Libraries/XMCLib/inc\xmc_dac.h ****  *
 541:C:/Users/Admin/DaveWorkspaces/XMC4300_PWMTest/Libraries/XMCLib/inc\xmc_dac.h ****  * \par<b>Related APIs:</b><BR>
 542:C:/Users/Admin/DaveWorkspaces/XMC4300_PWMTest/Libraries/XMCLib/inc\xmc_dac.h ****  * XMC_DAC_CH_EnableOutput(), XMC_DAC_CH_IsOutputEnabled()\n\n\n
 543:C:/Users/Admin/DaveWorkspaces/XMC4300_PWMTest/Libraries/XMCLib/inc\xmc_dac.h ****  *
 544:C:/Users/Admin/DaveWorkspaces/XMC4300_PWMTest/Libraries/XMCLib/inc\xmc_dac.h ****  */
 545:C:/Users/Admin/DaveWorkspaces/XMC4300_PWMTest/Libraries/XMCLib/inc\xmc_dac.h **** __STATIC_INLINE void XMC_DAC_CH_DisableOutput(XMC_DAC_t *const dac, const uint8_t channel)
 546:C:/Users/Admin/DaveWorkspaces/XMC4300_PWMTest/Libraries/XMCLib/inc\xmc_dac.h **** {
 547:C:/Users/Admin/DaveWorkspaces/XMC4300_PWMTest/Libraries/XMCLib/inc\xmc_dac.h ****   XMC_ASSERT("XMC_DAC_CH_DisableOutput: dac parameter not valid\n", XMC_DAC_IS_DAC_VALID(dac));
 548:C:/Users/Admin/DaveWorkspaces/XMC4300_PWMTest/Libraries/XMCLib/inc\xmc_dac.h ****   XMC_ASSERT("XMC_DAC_CH_DisableOutput: channel parameter not valid\n", XMC_DAC_IS_CHANNEL_VALID(ch
 549:C:/Users/Admin/DaveWorkspaces/XMC4300_PWMTest/Libraries/XMCLib/inc\xmc_dac.h ****   
 550:C:/Users/Admin/DaveWorkspaces/XMC4300_PWMTest/Libraries/XMCLib/inc\xmc_dac.h ****   dac->DACCFG[channel].high &= ~DAC_DAC0CFG1_ANAEN_Msk;
 551:C:/Users/Admin/DaveWorkspaces/XMC4300_PWMTest/Libraries/XMCLib/inc\xmc_dac.h **** }
 552:C:/Users/Admin/DaveWorkspaces/XMC4300_PWMTest/Libraries/XMCLib/inc\xmc_dac.h **** 
 553:C:/Users/Admin/DaveWorkspaces/XMC4300_PWMTest/Libraries/XMCLib/inc\xmc_dac.h **** /**
 554:C:/Users/Admin/DaveWorkspaces/XMC4300_PWMTest/Libraries/XMCLib/inc\xmc_dac.h ****  * @param dac Pointer to an instance of DAC module
 555:C:/Users/Admin/DaveWorkspaces/XMC4300_PWMTest/Libraries/XMCLib/inc\xmc_dac.h ****  * @param channel DAC channel number
 556:C:/Users/Admin/DaveWorkspaces/XMC4300_PWMTest/Libraries/XMCLib/inc\xmc_dac.h ****  *
 557:C:/Users/Admin/DaveWorkspaces/XMC4300_PWMTest/Libraries/XMCLib/inc\xmc_dac.h ****  * @return bool <BR>
 558:C:/Users/Admin/DaveWorkspaces/XMC4300_PWMTest/Libraries/XMCLib/inc\xmc_dac.h ****  * true  - if analog output is enabled <BR>
 559:C:/Users/Admin/DaveWorkspaces/XMC4300_PWMTest/Libraries/XMCLib/inc\xmc_dac.h ****  * false - if analog output is disabled <BR>
 560:C:/Users/Admin/DaveWorkspaces/XMC4300_PWMTest/Libraries/XMCLib/inc\xmc_dac.h ****  *
 561:C:/Users/Admin/DaveWorkspaces/XMC4300_PWMTest/Libraries/XMCLib/inc\xmc_dac.h ****  * \par<b>Description:</b><br>
 562:C:/Users/Admin/DaveWorkspaces/XMC4300_PWMTest/Libraries/XMCLib/inc\xmc_dac.h ****  * Returns the status of DAC analog output.
 563:C:/Users/Admin/DaveWorkspaces/XMC4300_PWMTest/Libraries/XMCLib/inc\xmc_dac.h ****  *
 564:C:/Users/Admin/DaveWorkspaces/XMC4300_PWMTest/Libraries/XMCLib/inc\xmc_dac.h ****  * \par
 565:C:/Users/Admin/DaveWorkspaces/XMC4300_PWMTest/Libraries/XMCLib/inc\xmc_dac.h ****  * Channel \a channel output enabled or disabled is determined by reading the \a ANAEN bit of \a DA
 566:C:/Users/Admin/DaveWorkspaces/XMC4300_PWMTest/Libraries/XMCLib/inc\xmc_dac.h ****  *
 567:C:/Users/Admin/DaveWorkspaces/XMC4300_PWMTest/Libraries/XMCLib/inc\xmc_dac.h ****  * \par<b>Related APIs:</b><BR>
 568:C:/Users/Admin/DaveWorkspaces/XMC4300_PWMTest/Libraries/XMCLib/inc\xmc_dac.h ****  * XMC_DAC_CH_EnableOutput(), XMC_DAC_CH_DisableOutput()\n\n\n
 569:C:/Users/Admin/DaveWorkspaces/XMC4300_PWMTest/Libraries/XMCLib/inc\xmc_dac.h ****  *
 570:C:/Users/Admin/DaveWorkspaces/XMC4300_PWMTest/Libraries/XMCLib/inc\xmc_dac.h ****  */
 571:C:/Users/Admin/DaveWorkspaces/XMC4300_PWMTest/Libraries/XMCLib/inc\xmc_dac.h **** __STATIC_INLINE bool XMC_DAC_CH_IsOutputEnabled(const XMC_DAC_t *const dac, const uint8_t channel)
 572:C:/Users/Admin/DaveWorkspaces/XMC4300_PWMTest/Libraries/XMCLib/inc\xmc_dac.h **** {
 573:C:/Users/Admin/DaveWorkspaces/XMC4300_PWMTest/Libraries/XMCLib/inc\xmc_dac.h ****   XMC_ASSERT("XMC_DAC_CH_IsOutputEnabled: dac parameter not valid\n", XMC_DAC_IS_DAC_VALID(dac));
 574:C:/Users/Admin/DaveWorkspaces/XMC4300_PWMTest/Libraries/XMCLib/inc\xmc_dac.h ****   XMC_ASSERT("XMC_DAC_CH_IsOutputEnabled: channel parameter not valid\n", XMC_DAC_IS_CHANNEL_VALID(
 575:C:/Users/Admin/DaveWorkspaces/XMC4300_PWMTest/Libraries/XMCLib/inc\xmc_dac.h ****   
 576:C:/Users/Admin/DaveWorkspaces/XMC4300_PWMTest/Libraries/XMCLib/inc\xmc_dac.h ****   return (bool)(dac->DACCFG[channel].high & DAC_DAC0CFG1_ANAEN_Msk);
 577:C:/Users/Admin/DaveWorkspaces/XMC4300_PWMTest/Libraries/XMCLib/inc\xmc_dac.h **** }
 578:C:/Users/Admin/DaveWorkspaces/XMC4300_PWMTest/Libraries/XMCLib/inc\xmc_dac.h **** 
 579:C:/Users/Admin/DaveWorkspaces/XMC4300_PWMTest/Libraries/XMCLib/inc\xmc_dac.h **** /**
 580:C:/Users/Admin/DaveWorkspaces/XMC4300_PWMTest/Libraries/XMCLib/inc\xmc_dac.h ****  * @param dac Pointer to an instance of DAC module
 581:C:/Users/Admin/DaveWorkspaces/XMC4300_PWMTest/Libraries/XMCLib/inc\xmc_dac.h ****  * @param channel DAC channel number
 582:C:/Users/Admin/DaveWorkspaces/XMC4300_PWMTest/Libraries/XMCLib/inc\xmc_dac.h ****  * @param data Data to be written  [0-4095]
 583:C:/Users/Admin/DaveWorkspaces/XMC4300_PWMTest/Libraries/XMCLib/inc\xmc_dac.h ****  *
 584:C:/Users/Admin/DaveWorkspaces/XMC4300_PWMTest/Libraries/XMCLib/inc\xmc_dac.h ****  * @return None
 585:C:/Users/Admin/DaveWorkspaces/XMC4300_PWMTest/Libraries/XMCLib/inc\xmc_dac.h ****  *
 586:C:/Users/Admin/DaveWorkspaces/XMC4300_PWMTest/Libraries/XMCLib/inc\xmc_dac.h ****  * \par<b>Description:</b><br>
 587:C:/Users/Admin/DaveWorkspaces/XMC4300_PWMTest/Libraries/XMCLib/inc\xmc_dac.h ****  * Writes the \e data to the \e channel's DATA register.
 588:C:/Users/Admin/DaveWorkspaces/XMC4300_PWMTest/Libraries/XMCLib/inc\xmc_dac.h ****  *
 589:C:/Users/Admin/DaveWorkspaces/XMC4300_PWMTest/Libraries/XMCLib/inc\xmc_dac.h ****  * \par
 590:C:/Users/Admin/DaveWorkspaces/XMC4300_PWMTest/Libraries/XMCLib/inc\xmc_dac.h ****  * The \e data is then converted and driven to the output.
 591:C:/Users/Admin/DaveWorkspaces/XMC4300_PWMTest/Libraries/XMCLib/inc\xmc_dac.h ****  * If the trigger is set, On a trigger event the data in DATA register is converted and driven to \
 592:C:/Users/Admin/DaveWorkspaces/XMC4300_PWMTest/Libraries/XMCLib/inc\xmc_dac.h ****  * Data \a data is written to the \a channel by loading \a data to \a DATA0 bit-field of \a DAC0DAT
 593:C:/Users/Admin/DaveWorkspaces/XMC4300_PWMTest/Libraries/XMCLib/inc\xmc_dac.h ****  * data has the range of [0-4095].
 594:C:/Users/Admin/DaveWorkspaces/XMC4300_PWMTest/Libraries/XMCLib/inc\xmc_dac.h ****  *
 595:C:/Users/Admin/DaveWorkspaces/XMC4300_PWMTest/Libraries/XMCLib/inc\xmc_dac.h ****  * \par<b>Note:</b><br>
 596:C:/Users/Admin/DaveWorkspaces/XMC4300_PWMTest/Libraries/XMCLib/inc\xmc_dac.h ****  * The API can be used for Single Value Mode, Data Mode (Individual) & Ramp Mode.
 597:C:/Users/Admin/DaveWorkspaces/XMC4300_PWMTest/Libraries/XMCLib/inc\xmc_dac.h ****  * Call XMC_DAC_CH_EnableOutput() API to enable analog output.
 598:C:/Users/Admin/DaveWorkspaces/XMC4300_PWMTest/Libraries/XMCLib/inc\xmc_dac.h ****  *
 599:C:/Users/Admin/DaveWorkspaces/XMC4300_PWMTest/Libraries/XMCLib/inc\xmc_dac.h ****  * \par<b>Related APIs:</b><BR>
 600:C:/Users/Admin/DaveWorkspaces/XMC4300_PWMTest/Libraries/XMCLib/inc\xmc_dac.h ****  * XMC_DAC_CH_StartSingleValueMode(), XMC_DAC_CH_StartDataMode(), XMC_DAC_CH_StartRampMode()\n\n\n
 601:C:/Users/Admin/DaveWorkspaces/XMC4300_PWMTest/Libraries/XMCLib/inc\xmc_dac.h ****  *
 602:C:/Users/Admin/DaveWorkspaces/XMC4300_PWMTest/Libraries/XMCLib/inc\xmc_dac.h ****  */
 603:C:/Users/Admin/DaveWorkspaces/XMC4300_PWMTest/Libraries/XMCLib/inc\xmc_dac.h **** __STATIC_INLINE void XMC_DAC_CH_Write(XMC_DAC_t *const dac, const uint8_t channel, const uint16_t d
 604:C:/Users/Admin/DaveWorkspaces/XMC4300_PWMTest/Libraries/XMCLib/inc\xmc_dac.h **** {
 605:C:/Users/Admin/DaveWorkspaces/XMC4300_PWMTest/Libraries/XMCLib/inc\xmc_dac.h ****   XMC_ASSERT("XMC_DAC_CH_Write: dac parameter not valid\n", XMC_DAC_IS_DAC_VALID(dac));
 606:C:/Users/Admin/DaveWorkspaces/XMC4300_PWMTest/Libraries/XMCLib/inc\xmc_dac.h ****   XMC_ASSERT("XMC_DAC_CH_Write: channel parameter not valid\n", XMC_DAC_IS_CHANNEL_VALID(channel));
 607:C:/Users/Admin/DaveWorkspaces/XMC4300_PWMTest/Libraries/XMCLib/inc\xmc_dac.h ****   
 608:C:/Users/Admin/DaveWorkspaces/XMC4300_PWMTest/Libraries/XMCLib/inc\xmc_dac.h ****   dac->DACDATA[channel] = data;
 609:C:/Users/Admin/DaveWorkspaces/XMC4300_PWMTest/Libraries/XMCLib/inc\xmc_dac.h **** }
 610:C:/Users/Admin/DaveWorkspaces/XMC4300_PWMTest/Libraries/XMCLib/inc\xmc_dac.h **** 
 611:C:/Users/Admin/DaveWorkspaces/XMC4300_PWMTest/Libraries/XMCLib/inc\xmc_dac.h **** /**
 612:C:/Users/Admin/DaveWorkspaces/XMC4300_PWMTest/Libraries/XMCLib/inc\xmc_dac.h ****  * @param dac Pointer to an instance of DAC module
 613:C:/Users/Admin/DaveWorkspaces/XMC4300_PWMTest/Libraries/XMCLib/inc\xmc_dac.h ****  * @param channel DAC channel number
 614:C:/Users/Admin/DaveWorkspaces/XMC4300_PWMTest/Libraries/XMCLib/inc\xmc_dac.h ****  *
 615:C:/Users/Admin/DaveWorkspaces/XMC4300_PWMTest/Libraries/XMCLib/inc\xmc_dac.h ****  * @return None
 616:C:/Users/Admin/DaveWorkspaces/XMC4300_PWMTest/Libraries/XMCLib/inc\xmc_dac.h ****  *
 617:C:/Users/Admin/DaveWorkspaces/XMC4300_PWMTest/Libraries/XMCLib/inc\xmc_dac.h ****  * \par<b>Description:</b><br>
 618:C:/Users/Admin/DaveWorkspaces/XMC4300_PWMTest/Libraries/XMCLib/inc\xmc_dac.h ****  * Sets the \e channel to Single Value Mode by calling XMC_DAC_CH_SetMode().
 619:C:/Users/Admin/DaveWorkspaces/XMC4300_PWMTest/Libraries/XMCLib/inc\xmc_dac.h ****  *
 620:C:/Users/Admin/DaveWorkspaces/XMC4300_PWMTest/Libraries/XMCLib/inc\xmc_dac.h ****  * \par<b>Note:</b><br>
 621:C:/Users/Admin/DaveWorkspaces/XMC4300_PWMTest/Libraries/XMCLib/inc\xmc_dac.h ****  * Call XMC_DAC_CH_Write() API to write the data.
 622:C:/Users/Admin/DaveWorkspaces/XMC4300_PWMTest/Libraries/XMCLib/inc\xmc_dac.h ****  *
 623:C:/Users/Admin/DaveWorkspaces/XMC4300_PWMTest/Libraries/XMCLib/inc\xmc_dac.h ****  * \par<b>Related APIs:</b><BR>
 624:C:/Users/Admin/DaveWorkspaces/XMC4300_PWMTest/Libraries/XMCLib/inc\xmc_dac.h ****  * XMC_DAC_CH_Write()\n\n\n
 625:C:/Users/Admin/DaveWorkspaces/XMC4300_PWMTest/Libraries/XMCLib/inc\xmc_dac.h ****  *
 626:C:/Users/Admin/DaveWorkspaces/XMC4300_PWMTest/Libraries/XMCLib/inc\xmc_dac.h ****  */
 627:C:/Users/Admin/DaveWorkspaces/XMC4300_PWMTest/Libraries/XMCLib/inc\xmc_dac.h **** XMC_DAC_CH_STATUS_t XMC_DAC_CH_StartSingleValueMode(XMC_DAC_t *const dac, const uint8_t channel);
 628:C:/Users/Admin/DaveWorkspaces/XMC4300_PWMTest/Libraries/XMCLib/inc\xmc_dac.h **** 
 629:C:/Users/Admin/DaveWorkspaces/XMC4300_PWMTest/Libraries/XMCLib/inc\xmc_dac.h **** /**
 630:C:/Users/Admin/DaveWorkspaces/XMC4300_PWMTest/Libraries/XMCLib/inc\xmc_dac.h ****  * @param dac Pointer to an instance of DAC module
 631:C:/Users/Admin/DaveWorkspaces/XMC4300_PWMTest/Libraries/XMCLib/inc\xmc_dac.h ****  * @param channel DAC channel number
 632:C:/Users/Admin/DaveWorkspaces/XMC4300_PWMTest/Libraries/XMCLib/inc\xmc_dac.h ****  * @param trigger Data points update trigger
 633:C:/Users/Admin/DaveWorkspaces/XMC4300_PWMTest/Libraries/XMCLib/inc\xmc_dac.h ****  * @param frequency Waveform frequency [Hz]
 634:C:/Users/Admin/DaveWorkspaces/XMC4300_PWMTest/Libraries/XMCLib/inc\xmc_dac.h ****  *
 635:C:/Users/Admin/DaveWorkspaces/XMC4300_PWMTest/Libraries/XMCLib/inc\xmc_dac.h ****  * @return XMC_DAC_CH_STATUS_t status
 636:C:/Users/Admin/DaveWorkspaces/XMC4300_PWMTest/Libraries/XMCLib/inc\xmc_dac.h ****  *
 637:C:/Users/Admin/DaveWorkspaces/XMC4300_PWMTest/Libraries/XMCLib/inc\xmc_dac.h ****  * \par<b>Description:</b><br>
 638:C:/Users/Admin/DaveWorkspaces/XMC4300_PWMTest/Libraries/XMCLib/inc\xmc_dac.h ****  * Sets the \e channel to Data mode. Trigger and frequency are configured.
 639:C:/Users/Admin/DaveWorkspaces/XMC4300_PWMTest/Libraries/XMCLib/inc\xmc_dac.h ****  *
 640:C:/Users/Admin/DaveWorkspaces/XMC4300_PWMTest/Libraries/XMCLib/inc\xmc_dac.h ****  * \par<b>Note:</b><br>
 641:C:/Users/Admin/DaveWorkspaces/XMC4300_PWMTest/Libraries/XMCLib/inc\xmc_dac.h ****  * Call XMC_DAC_CH_Write() API to write the data. Call XMC_DAC_EnableSimultaneousDataMode() to swit
 642:C:/Users/Admin/DaveWorkspaces/XMC4300_PWMTest/Libraries/XMCLib/inc\xmc_dac.h ****  *
 643:C:/Users/Admin/DaveWorkspaces/XMC4300_PWMTest/Libraries/XMCLib/inc\xmc_dac.h ****  * \par<b>Related APIs:</b><BR>
 644:C:/Users/Admin/DaveWorkspaces/XMC4300_PWMTest/Libraries/XMCLib/inc\xmc_dac.h ****  * XMC_DAC_CH_Init(), XMC_DAC_CH_Write(), XMC_DAC_EnableSimultaneousDataMode() \n\n\n
 645:C:/Users/Admin/DaveWorkspaces/XMC4300_PWMTest/Libraries/XMCLib/inc\xmc_dac.h ****  *
 646:C:/Users/Admin/DaveWorkspaces/XMC4300_PWMTest/Libraries/XMCLib/inc\xmc_dac.h ****  */
 647:C:/Users/Admin/DaveWorkspaces/XMC4300_PWMTest/Libraries/XMCLib/inc\xmc_dac.h **** XMC_DAC_CH_STATUS_t XMC_DAC_CH_StartDataMode(XMC_DAC_t *const dac,
 648:C:/Users/Admin/DaveWorkspaces/XMC4300_PWMTest/Libraries/XMCLib/inc\xmc_dac.h ****                                              const uint8_t channel,
 649:C:/Users/Admin/DaveWorkspaces/XMC4300_PWMTest/Libraries/XMCLib/inc\xmc_dac.h ****                                              const XMC_DAC_CH_TRIGGER_t trigger,
 650:C:/Users/Admin/DaveWorkspaces/XMC4300_PWMTest/Libraries/XMCLib/inc\xmc_dac.h ****                                              const uint32_t frequency);
 651:C:/Users/Admin/DaveWorkspaces/XMC4300_PWMTest/Libraries/XMCLib/inc\xmc_dac.h **** 
 652:C:/Users/Admin/DaveWorkspaces/XMC4300_PWMTest/Libraries/XMCLib/inc\xmc_dac.h **** /**
 653:C:/Users/Admin/DaveWorkspaces/XMC4300_PWMTest/Libraries/XMCLib/inc\xmc_dac.h ****  * @param dac Pointer to an instance of DAC module
 654:C:/Users/Admin/DaveWorkspaces/XMC4300_PWMTest/Libraries/XMCLib/inc\xmc_dac.h ****  * @param channel DAC channel number
 655:C:/Users/Admin/DaveWorkspaces/XMC4300_PWMTest/Libraries/XMCLib/inc\xmc_dac.h ****  * @param start Start point of the ramp [0-4095]
 656:C:/Users/Admin/DaveWorkspaces/XMC4300_PWMTest/Libraries/XMCLib/inc\xmc_dac.h ****  * @param stop Stop point of the ramp [0-4095]
 657:C:/Users/Admin/DaveWorkspaces/XMC4300_PWMTest/Libraries/XMCLib/inc\xmc_dac.h ****  * @param trigger Data points update trigger
 658:C:/Users/Admin/DaveWorkspaces/XMC4300_PWMTest/Libraries/XMCLib/inc\xmc_dac.h ****  * @param frequency Ramp frequency in [Hz]
 659:C:/Users/Admin/DaveWorkspaces/XMC4300_PWMTest/Libraries/XMCLib/inc\xmc_dac.h ****  *
 660:C:/Users/Admin/DaveWorkspaces/XMC4300_PWMTest/Libraries/XMCLib/inc\xmc_dac.h ****  * @return XMC_DAC_CH_STATUS_t status
 661:C:/Users/Admin/DaveWorkspaces/XMC4300_PWMTest/Libraries/XMCLib/inc\xmc_dac.h ****  *
 662:C:/Users/Admin/DaveWorkspaces/XMC4300_PWMTest/Libraries/XMCLib/inc\xmc_dac.h ****  * \par<b>Description:</b><br>
 663:C:/Users/Admin/DaveWorkspaces/XMC4300_PWMTest/Libraries/XMCLib/inc\xmc_dac.h ****  * Sets the \e channel to Ramp mode. Trigger, frequency, start and stop values are configured.
 664:C:/Users/Admin/DaveWorkspaces/XMC4300_PWMTest/Libraries/XMCLib/inc\xmc_dac.h ****  * On a \e trigger ramp values are converted and driven to \e channel output.
 665:C:/Users/Admin/DaveWorkspaces/XMC4300_PWMTest/Libraries/XMCLib/inc\xmc_dac.h ****  * Start and stop have the range of [0-4095]. Stop should be equal or greater than start. 
 666:C:/Users/Admin/DaveWorkspaces/XMC4300_PWMTest/Libraries/XMCLib/inc\xmc_dac.h ****  *
 667:C:/Users/Admin/DaveWorkspaces/XMC4300_PWMTest/Libraries/XMCLib/inc\xmc_dac.h ****  * \par<b>Note:</b><br>
 668:C:/Users/Admin/DaveWorkspaces/XMC4300_PWMTest/Libraries/XMCLib/inc\xmc_dac.h ****  * If the ramp counter reaches its \e stop value, it restarts from the \e start value with the next
 669:C:/Users/Admin/DaveWorkspaces/XMC4300_PWMTest/Libraries/XMCLib/inc\xmc_dac.h ****  *
 670:C:/Users/Admin/DaveWorkspaces/XMC4300_PWMTest/Libraries/XMCLib/inc\xmc_dac.h ****  * \par<b>Related APIs:</b><BR>
 671:C:/Users/Admin/DaveWorkspaces/XMC4300_PWMTest/Libraries/XMCLib/inc\xmc_dac.h ****  * XMC_DAC_CH_Init(), XMC_DAC_CH_GetRampStart(), XMC_DAC_CH_GetRampStop() \n\n\n
 672:C:/Users/Admin/DaveWorkspaces/XMC4300_PWMTest/Libraries/XMCLib/inc\xmc_dac.h ****  *
 673:C:/Users/Admin/DaveWorkspaces/XMC4300_PWMTest/Libraries/XMCLib/inc\xmc_dac.h ****  */
 674:C:/Users/Admin/DaveWorkspaces/XMC4300_PWMTest/Libraries/XMCLib/inc\xmc_dac.h **** XMC_DAC_CH_STATUS_t XMC_DAC_CH_StartRampMode(XMC_DAC_t *const dac,
 675:C:/Users/Admin/DaveWorkspaces/XMC4300_PWMTest/Libraries/XMCLib/inc\xmc_dac.h ****                                              const uint8_t channel,
 676:C:/Users/Admin/DaveWorkspaces/XMC4300_PWMTest/Libraries/XMCLib/inc\xmc_dac.h ****                                              const uint16_t start,
 677:C:/Users/Admin/DaveWorkspaces/XMC4300_PWMTest/Libraries/XMCLib/inc\xmc_dac.h ****                                              const uint16_t stop,
 678:C:/Users/Admin/DaveWorkspaces/XMC4300_PWMTest/Libraries/XMCLib/inc\xmc_dac.h ****                                              const XMC_DAC_CH_TRIGGER_t trigger,
 679:C:/Users/Admin/DaveWorkspaces/XMC4300_PWMTest/Libraries/XMCLib/inc\xmc_dac.h ****                                              const uint32_t frequency);
 680:C:/Users/Admin/DaveWorkspaces/XMC4300_PWMTest/Libraries/XMCLib/inc\xmc_dac.h **** 
 681:C:/Users/Admin/DaveWorkspaces/XMC4300_PWMTest/Libraries/XMCLib/inc\xmc_dac.h **** /**
 682:C:/Users/Admin/DaveWorkspaces/XMC4300_PWMTest/Libraries/XMCLib/inc\xmc_dac.h ****  * @param dac Pointer to an instance of DAC module
 683:C:/Users/Admin/DaveWorkspaces/XMC4300_PWMTest/Libraries/XMCLib/inc\xmc_dac.h ****  * @param channel DAC channel number
 684:C:/Users/Admin/DaveWorkspaces/XMC4300_PWMTest/Libraries/XMCLib/inc\xmc_dac.h ****  * @param pattern Data table of a pattern
 685:C:/Users/Admin/DaveWorkspaces/XMC4300_PWMTest/Libraries/XMCLib/inc\xmc_dac.h ****  * @param sign_output Sign information of the waveform
 686:C:/Users/Admin/DaveWorkspaces/XMC4300_PWMTest/Libraries/XMCLib/inc\xmc_dac.h ****  * @param trigger Data points update trigger
 687:C:/Users/Admin/DaveWorkspaces/XMC4300_PWMTest/Libraries/XMCLib/inc\xmc_dac.h ****  * @param frequency Waveform frequency in [Hz]
 688:C:/Users/Admin/DaveWorkspaces/XMC4300_PWMTest/Libraries/XMCLib/inc\xmc_dac.h ****  *
 689:C:/Users/Admin/DaveWorkspaces/XMC4300_PWMTest/Libraries/XMCLib/inc\xmc_dac.h ****  * @return XMC_DAC_CH_STATUS_t status
 690:C:/Users/Admin/DaveWorkspaces/XMC4300_PWMTest/Libraries/XMCLib/inc\xmc_dac.h ****  *
 691:C:/Users/Admin/DaveWorkspaces/XMC4300_PWMTest/Libraries/XMCLib/inc\xmc_dac.h ****  * \par<b>Description:</b><br>
 692:C:/Users/Admin/DaveWorkspaces/XMC4300_PWMTest/Libraries/XMCLib/inc\xmc_dac.h ****  * Sets the \e channel to Pattern mode. Trigger, frequency, sign output and data are configured.
 693:C:/Users/Admin/DaveWorkspaces/XMC4300_PWMTest/Libraries/XMCLib/inc\xmc_dac.h ****  * On a \e trigger, the \e pattern values are converted and driven to \e channel output.
 694:C:/Users/Admin/DaveWorkspaces/XMC4300_PWMTest/Libraries/XMCLib/inc\xmc_dac.h ****  *
 695:C:/Users/Admin/DaveWorkspaces/XMC4300_PWMTest/Libraries/XMCLib/inc\xmc_dac.h ****  * \par<b>Related APIs:</b><BR>
 696:C:/Users/Admin/DaveWorkspaces/XMC4300_PWMTest/Libraries/XMCLib/inc\xmc_dac.h ****  * XMC_DAC_CH_Init(), XMC_DAC_CH_DisablePatternSignOutput() \n\n\n
 697:C:/Users/Admin/DaveWorkspaces/XMC4300_PWMTest/Libraries/XMCLib/inc\xmc_dac.h ****  *
 698:C:/Users/Admin/DaveWorkspaces/XMC4300_PWMTest/Libraries/XMCLib/inc\xmc_dac.h ****  */
 699:C:/Users/Admin/DaveWorkspaces/XMC4300_PWMTest/Libraries/XMCLib/inc\xmc_dac.h **** XMC_DAC_CH_STATUS_t XMC_DAC_CH_StartPatternMode(XMC_DAC_t *const dac,
 700:C:/Users/Admin/DaveWorkspaces/XMC4300_PWMTest/Libraries/XMCLib/inc\xmc_dac.h ****                                                 const uint8_t channel,
 701:C:/Users/Admin/DaveWorkspaces/XMC4300_PWMTest/Libraries/XMCLib/inc\xmc_dac.h ****                                                 const uint8_t *const pattern,
 702:C:/Users/Admin/DaveWorkspaces/XMC4300_PWMTest/Libraries/XMCLib/inc\xmc_dac.h ****                                                 const XMC_DAC_CH_PATTERN_SIGN_OUTPUT_t sign_output,
 703:C:/Users/Admin/DaveWorkspaces/XMC4300_PWMTest/Libraries/XMCLib/inc\xmc_dac.h ****                                                 const XMC_DAC_CH_TRIGGER_t trigger,
 704:C:/Users/Admin/DaveWorkspaces/XMC4300_PWMTest/Libraries/XMCLib/inc\xmc_dac.h ****                                                 const uint32_t frequency);
 705:C:/Users/Admin/DaveWorkspaces/XMC4300_PWMTest/Libraries/XMCLib/inc\xmc_dac.h **** 
 706:C:/Users/Admin/DaveWorkspaces/XMC4300_PWMTest/Libraries/XMCLib/inc\xmc_dac.h **** /**
 707:C:/Users/Admin/DaveWorkspaces/XMC4300_PWMTest/Libraries/XMCLib/inc\xmc_dac.h ****  * @param dac Pointer to an instance of DAC module
 708:C:/Users/Admin/DaveWorkspaces/XMC4300_PWMTest/Libraries/XMCLib/inc\xmc_dac.h ****  * @param channel DAC channel number
 709:C:/Users/Admin/DaveWorkspaces/XMC4300_PWMTest/Libraries/XMCLib/inc\xmc_dac.h ****  * @param trigger Data points update trigger
 710:C:/Users/Admin/DaveWorkspaces/XMC4300_PWMTest/Libraries/XMCLib/inc\xmc_dac.h ****  * @param frequency Waveform frequency in [Hz]
 711:C:/Users/Admin/DaveWorkspaces/XMC4300_PWMTest/Libraries/XMCLib/inc\xmc_dac.h ****  *
 712:C:/Users/Admin/DaveWorkspaces/XMC4300_PWMTest/Libraries/XMCLib/inc\xmc_dac.h ****  * @return XMC_DAC_CH_STATUS_t status
 713:C:/Users/Admin/DaveWorkspaces/XMC4300_PWMTest/Libraries/XMCLib/inc\xmc_dac.h ****  *
 714:C:/Users/Admin/DaveWorkspaces/XMC4300_PWMTest/Libraries/XMCLib/inc\xmc_dac.h ****  * \par<b>Description:</b><br>
 715:C:/Users/Admin/DaveWorkspaces/XMC4300_PWMTest/Libraries/XMCLib/inc\xmc_dac.h ****  * Sets the \e channel to Noise mode. Trigger and frequency are configured.
 716:C:/Users/Admin/DaveWorkspaces/XMC4300_PWMTest/Libraries/XMCLib/inc\xmc_dac.h ****  * On a \e trigger the DAC starts converting and drives to \e channel output.
 717:C:/Users/Admin/DaveWorkspaces/XMC4300_PWMTest/Libraries/XMCLib/inc\xmc_dac.h ****  *
 718:C:/Users/Admin/DaveWorkspaces/XMC4300_PWMTest/Libraries/XMCLib/inc\xmc_dac.h ****  * \par<b>Related APIs:</b><BR>
 719:C:/Users/Admin/DaveWorkspaces/XMC4300_PWMTest/Libraries/XMCLib/inc\xmc_dac.h ****  * XMC_DAC_CH_Init()\n\n\n
 720:C:/Users/Admin/DaveWorkspaces/XMC4300_PWMTest/Libraries/XMCLib/inc\xmc_dac.h ****  *
 721:C:/Users/Admin/DaveWorkspaces/XMC4300_PWMTest/Libraries/XMCLib/inc\xmc_dac.h ****  */
 722:C:/Users/Admin/DaveWorkspaces/XMC4300_PWMTest/Libraries/XMCLib/inc\xmc_dac.h **** XMC_DAC_CH_STATUS_t XMC_DAC_CH_StartNoiseMode(XMC_DAC_t *const dac,
 723:C:/Users/Admin/DaveWorkspaces/XMC4300_PWMTest/Libraries/XMCLib/inc\xmc_dac.h ****                                               const uint8_t channel,
 724:C:/Users/Admin/DaveWorkspaces/XMC4300_PWMTest/Libraries/XMCLib/inc\xmc_dac.h ****                                               const XMC_DAC_CH_TRIGGER_t trigger,
 725:C:/Users/Admin/DaveWorkspaces/XMC4300_PWMTest/Libraries/XMCLib/inc\xmc_dac.h ****                                               const uint32_t frequency);
 726:C:/Users/Admin/DaveWorkspaces/XMC4300_PWMTest/Libraries/XMCLib/inc\xmc_dac.h **** 
 727:C:/Users/Admin/DaveWorkspaces/XMC4300_PWMTest/Libraries/XMCLib/inc\xmc_dac.h **** /**
 728:C:/Users/Admin/DaveWorkspaces/XMC4300_PWMTest/Libraries/XMCLib/inc\xmc_dac.h ****  * @param dac Pointer to an instance of DAC module
 729:C:/Users/Admin/DaveWorkspaces/XMC4300_PWMTest/Libraries/XMCLib/inc\xmc_dac.h ****  * @param channel DAC channel number
 730:C:/Users/Admin/DaveWorkspaces/XMC4300_PWMTest/Libraries/XMCLib/inc\xmc_dac.h ****  * @param pattern Pointer to the data table
 731:C:/Users/Admin/DaveWorkspaces/XMC4300_PWMTest/Libraries/XMCLib/inc\xmc_dac.h ****  *
 732:C:/Users/Admin/DaveWorkspaces/XMC4300_PWMTest/Libraries/XMCLib/inc\xmc_dac.h ****  * @return None
 733:C:/Users/Admin/DaveWorkspaces/XMC4300_PWMTest/Libraries/XMCLib/inc\xmc_dac.h ****  *
 734:C:/Users/Admin/DaveWorkspaces/XMC4300_PWMTest/Libraries/XMCLib/inc\xmc_dac.h ****  * \par<b>Description:</b><br>
 735:C:/Users/Admin/DaveWorkspaces/XMC4300_PWMTest/Libraries/XMCLib/inc\xmc_dac.h ****  * The data for the Pattern mode is written to the \a DAC0PATL and \a DAC0PATH registers.
 736:C:/Users/Admin/DaveWorkspaces/XMC4300_PWMTest/Libraries/XMCLib/inc\xmc_dac.h ****  * The API is called by XMC_DAC_CH_StartPatternMode().
 737:C:/Users/Admin/DaveWorkspaces/XMC4300_PWMTest/Libraries/XMCLib/inc\xmc_dac.h ****  *
 738:C:/Users/Admin/DaveWorkspaces/XMC4300_PWMTest/Libraries/XMCLib/inc\xmc_dac.h ****  * \par<b>Note:</b><br>
 739:C:/Users/Admin/DaveWorkspaces/XMC4300_PWMTest/Libraries/XMCLib/inc\xmc_dac.h ****  * Call this API if the \a channel is set to Pattern mode.
 740:C:/Users/Admin/DaveWorkspaces/XMC4300_PWMTest/Libraries/XMCLib/inc\xmc_dac.h ****  *
 741:C:/Users/Admin/DaveWorkspaces/XMC4300_PWMTest/Libraries/XMCLib/inc\xmc_dac.h ****  * \par<b>Related APIs:</b><BR>
 742:C:/Users/Admin/DaveWorkspaces/XMC4300_PWMTest/Libraries/XMCLib/inc\xmc_dac.h ****  * XMC_DAC_CH_EnablePatternSignOutput(), XMC_DAC_CH_DisablePatternSignOutput()\n\n\n
 743:C:/Users/Admin/DaveWorkspaces/XMC4300_PWMTest/Libraries/XMCLib/inc\xmc_dac.h ****  *
 744:C:/Users/Admin/DaveWorkspaces/XMC4300_PWMTest/Libraries/XMCLib/inc\xmc_dac.h ****  */
 745:C:/Users/Admin/DaveWorkspaces/XMC4300_PWMTest/Libraries/XMCLib/inc\xmc_dac.h **** void XMC_DAC_CH_SetPattern(XMC_DAC_t *const dac, const uint8_t channel, const uint8_t *const patter
 746:C:/Users/Admin/DaveWorkspaces/XMC4300_PWMTest/Libraries/XMCLib/inc\xmc_dac.h **** 
 747:C:/Users/Admin/DaveWorkspaces/XMC4300_PWMTest/Libraries/XMCLib/inc\xmc_dac.h **** /**
 748:C:/Users/Admin/DaveWorkspaces/XMC4300_PWMTest/Libraries/XMCLib/inc\xmc_dac.h ****  * @param dac Pointer to an instance of DAC module
 749:C:/Users/Admin/DaveWorkspaces/XMC4300_PWMTest/Libraries/XMCLib/inc\xmc_dac.h ****  * @param channel DAC channel number
 750:C:/Users/Admin/DaveWorkspaces/XMC4300_PWMTest/Libraries/XMCLib/inc\xmc_dac.h ****  *
 751:C:/Users/Admin/DaveWorkspaces/XMC4300_PWMTest/Libraries/XMCLib/inc\xmc_dac.h ****  * @return None
 752:C:/Users/Admin/DaveWorkspaces/XMC4300_PWMTest/Libraries/XMCLib/inc\xmc_dac.h ****  *
 753:C:/Users/Admin/DaveWorkspaces/XMC4300_PWMTest/Libraries/XMCLib/inc\xmc_dac.h ****  * \par<b>Description:</b><br>
 754:C:/Users/Admin/DaveWorkspaces/XMC4300_PWMTest/Libraries/XMCLib/inc\xmc_dac.h ****  * Enables the output sign information for Pattern Mode.
 755:C:/Users/Admin/DaveWorkspaces/XMC4300_PWMTest/Libraries/XMCLib/inc\xmc_dac.h ****  *
 756:C:/Users/Admin/DaveWorkspaces/XMC4300_PWMTest/Libraries/XMCLib/inc\xmc_dac.h ****  * \par
 757:C:/Users/Admin/DaveWorkspaces/XMC4300_PWMTest/Libraries/XMCLib/inc\xmc_dac.h ****  * Sign output is enabled by setting \a SIGNEN bit of \a DAC0CFG0 register (for channel 0) / DAC1CF
 758:C:/Users/Admin/DaveWorkspaces/XMC4300_PWMTest/Libraries/XMCLib/inc\xmc_dac.h ****  *
 759:C:/Users/Admin/DaveWorkspaces/XMC4300_PWMTest/Libraries/XMCLib/inc\xmc_dac.h ****  * \par<b>Note:</b><br>
 760:C:/Users/Admin/DaveWorkspaces/XMC4300_PWMTest/Libraries/XMCLib/inc\xmc_dac.h ****  * Call this API if the \e channel is set to Pattern mode.
 761:C:/Users/Admin/DaveWorkspaces/XMC4300_PWMTest/Libraries/XMCLib/inc\xmc_dac.h ****  *
 762:C:/Users/Admin/DaveWorkspaces/XMC4300_PWMTest/Libraries/XMCLib/inc\xmc_dac.h ****  * \par<b>Related APIs:</b><BR>
 763:C:/Users/Admin/DaveWorkspaces/XMC4300_PWMTest/Libraries/XMCLib/inc\xmc_dac.h ****  * XMC_DAC_CH_StartPatternMode(), XMC_DAC_CH_DisablePatternSignOutput()\n\n\n
 764:C:/Users/Admin/DaveWorkspaces/XMC4300_PWMTest/Libraries/XMCLib/inc\xmc_dac.h ****  *
 765:C:/Users/Admin/DaveWorkspaces/XMC4300_PWMTest/Libraries/XMCLib/inc\xmc_dac.h ****  */
 766:C:/Users/Admin/DaveWorkspaces/XMC4300_PWMTest/Libraries/XMCLib/inc\xmc_dac.h **** __STATIC_INLINE void XMC_DAC_CH_EnablePatternSignOutput(XMC_DAC_t *const dac,
 767:C:/Users/Admin/DaveWorkspaces/XMC4300_PWMTest/Libraries/XMCLib/inc\xmc_dac.h ****                                                      const uint8_t channel)
 768:C:/Users/Admin/DaveWorkspaces/XMC4300_PWMTest/Libraries/XMCLib/inc\xmc_dac.h **** {
  80              	 .loc 1 768 0
  81              	 .cfi_startproc
  82              	 
  83              	 
  84              	 
  85 0000 80B4     	 push {r7}
  86              	.LCFI6:
  87              	 .cfi_def_cfa_offset 4
  88              	 .cfi_offset 7,-4
  89 0002 83B0     	 sub sp,sp,#12
  90              	.LCFI7:
  91              	 .cfi_def_cfa_offset 16
  92 0004 00AF     	 add r7,sp,#0
  93              	.LCFI8:
  94              	 .cfi_def_cfa_register 7
  95 0006 7860     	 str r0,[r7,#4]
  96 0008 0B46     	 mov r3,r1
  97 000a FB70     	 strb r3,[r7,#3]
 769:C:/Users/Admin/DaveWorkspaces/XMC4300_PWMTest/Libraries/XMCLib/inc\xmc_dac.h ****   XMC_ASSERT("XMC_DAC_CH_EnablePatternSignOutput: dac parameter not valid\n", XMC_DAC_IS_DAC_VALID(
 770:C:/Users/Admin/DaveWorkspaces/XMC4300_PWMTest/Libraries/XMCLib/inc\xmc_dac.h ****   XMC_ASSERT("XMC_DAC_CH_EnablePatternSignOutput: channel parameter not valid\n", XMC_DAC_IS_CHANNE
 771:C:/Users/Admin/DaveWorkspaces/XMC4300_PWMTest/Libraries/XMCLib/inc\xmc_dac.h ****   
 772:C:/Users/Admin/DaveWorkspaces/XMC4300_PWMTest/Libraries/XMCLib/inc\xmc_dac.h ****   dac->DACCFG[channel].low |= DAC_DAC0CFG0_SIGNEN_Msk;
  98              	 .loc 1 772 0
  99 000c F878     	 ldrb r0,[r7,#3]
 100 000e FB78     	 ldrb r3,[r7,#3]
 101 0010 7A68     	 ldr r2,[r7,#4]
 102 0012 DB00     	 lsls r3,r3,#3
 103 0014 1344     	 add r3,r3,r2
 104 0016 5B68     	 ldr r3,[r3,#4]
 105 0018 43F00052 	 orr r2,r3,#536870912
 106 001c 7968     	 ldr r1,[r7,#4]
 107 001e C300     	 lsls r3,r0,#3
 108 0020 0B44     	 add r3,r3,r1
 109 0022 5A60     	 str r2,[r3,#4]
 773:C:/Users/Admin/DaveWorkspaces/XMC4300_PWMTest/Libraries/XMCLib/inc\xmc_dac.h **** }
 110              	 .loc 1 773 0
 111 0024 0C37     	 adds r7,r7,#12
 112              	.LCFI9:
 113              	 .cfi_def_cfa_offset 4
 114 0026 BD46     	 mov sp,r7
 115              	.LCFI10:
 116              	 .cfi_def_cfa_register 13
 117              	 
 118 0028 5DF8047B 	 ldr r7,[sp],#4
 119              	.LCFI11:
 120              	 .cfi_restore 7
 121              	 .cfi_def_cfa_offset 0
 122 002c 7047     	 bx lr
 123              	 .cfi_endproc
 124              	.LFE144:
 126 002e 00BF     	 .section .text.XMC_DAC_CH_DisablePatternSignOutput,"ax",%progbits
 127              	 .align 2
 128              	 .thumb
 129              	 .thumb_func
 131              	XMC_DAC_CH_DisablePatternSignOutput:
 132              	.LFB145:
 774:C:/Users/Admin/DaveWorkspaces/XMC4300_PWMTest/Libraries/XMCLib/inc\xmc_dac.h **** 
 775:C:/Users/Admin/DaveWorkspaces/XMC4300_PWMTest/Libraries/XMCLib/inc\xmc_dac.h **** /**
 776:C:/Users/Admin/DaveWorkspaces/XMC4300_PWMTest/Libraries/XMCLib/inc\xmc_dac.h ****  * @param dac Pointer to an instance of DAC module
 777:C:/Users/Admin/DaveWorkspaces/XMC4300_PWMTest/Libraries/XMCLib/inc\xmc_dac.h ****  * @param channel DAC channel number
 778:C:/Users/Admin/DaveWorkspaces/XMC4300_PWMTest/Libraries/XMCLib/inc\xmc_dac.h ****  *
 779:C:/Users/Admin/DaveWorkspaces/XMC4300_PWMTest/Libraries/XMCLib/inc\xmc_dac.h ****  * @return None
 780:C:/Users/Admin/DaveWorkspaces/XMC4300_PWMTest/Libraries/XMCLib/inc\xmc_dac.h ****  *
 781:C:/Users/Admin/DaveWorkspaces/XMC4300_PWMTest/Libraries/XMCLib/inc\xmc_dac.h ****  * \par<b>Description:</b><br>
 782:C:/Users/Admin/DaveWorkspaces/XMC4300_PWMTest/Libraries/XMCLib/inc\xmc_dac.h ****  * Disables output sign information for Pattern Mode.
 783:C:/Users/Admin/DaveWorkspaces/XMC4300_PWMTest/Libraries/XMCLib/inc\xmc_dac.h ****  *
 784:C:/Users/Admin/DaveWorkspaces/XMC4300_PWMTest/Libraries/XMCLib/inc\xmc_dac.h ****  * \par
 785:C:/Users/Admin/DaveWorkspaces/XMC4300_PWMTest/Libraries/XMCLib/inc\xmc_dac.h ****  * Sign output is disabled by clearing \a SIGNEN bit of \a DAC0CFG0 register (for channel 0) / DAC1
 786:C:/Users/Admin/DaveWorkspaces/XMC4300_PWMTest/Libraries/XMCLib/inc\xmc_dac.h ****  *
 787:C:/Users/Admin/DaveWorkspaces/XMC4300_PWMTest/Libraries/XMCLib/inc\xmc_dac.h ****  * \par<b>Note:</b><br>
 788:C:/Users/Admin/DaveWorkspaces/XMC4300_PWMTest/Libraries/XMCLib/inc\xmc_dac.h ****  * Call this API if the \e channel is set to Pattern mode.
 789:C:/Users/Admin/DaveWorkspaces/XMC4300_PWMTest/Libraries/XMCLib/inc\xmc_dac.h ****  *
 790:C:/Users/Admin/DaveWorkspaces/XMC4300_PWMTest/Libraries/XMCLib/inc\xmc_dac.h ****  * \par<b>Related APIs:</b><BR>
 791:C:/Users/Admin/DaveWorkspaces/XMC4300_PWMTest/Libraries/XMCLib/inc\xmc_dac.h ****  * XMC_DAC_CH_StartPatternMode(), XMC_DAC_CH_EnablePatternSignOutput()\n\n\n
 792:C:/Users/Admin/DaveWorkspaces/XMC4300_PWMTest/Libraries/XMCLib/inc\xmc_dac.h ****  *
 793:C:/Users/Admin/DaveWorkspaces/XMC4300_PWMTest/Libraries/XMCLib/inc\xmc_dac.h ****  */
 794:C:/Users/Admin/DaveWorkspaces/XMC4300_PWMTest/Libraries/XMCLib/inc\xmc_dac.h **** __STATIC_INLINE void XMC_DAC_CH_DisablePatternSignOutput(XMC_DAC_t *const dac,
 795:C:/Users/Admin/DaveWorkspaces/XMC4300_PWMTest/Libraries/XMCLib/inc\xmc_dac.h ****                                                      const uint8_t channel)
 796:C:/Users/Admin/DaveWorkspaces/XMC4300_PWMTest/Libraries/XMCLib/inc\xmc_dac.h **** {
 133              	 .loc 1 796 0
 134              	 .cfi_startproc
 135              	 
 136              	 
 137              	 
 138 0000 80B4     	 push {r7}
 139              	.LCFI12:
 140              	 .cfi_def_cfa_offset 4
 141              	 .cfi_offset 7,-4
 142 0002 83B0     	 sub sp,sp,#12
 143              	.LCFI13:
 144              	 .cfi_def_cfa_offset 16
 145 0004 00AF     	 add r7,sp,#0
 146              	.LCFI14:
 147              	 .cfi_def_cfa_register 7
 148 0006 7860     	 str r0,[r7,#4]
 149 0008 0B46     	 mov r3,r1
 150 000a FB70     	 strb r3,[r7,#3]
 797:C:/Users/Admin/DaveWorkspaces/XMC4300_PWMTest/Libraries/XMCLib/inc\xmc_dac.h ****   XMC_ASSERT("XMC_DAC_CH_DisablePatternSignOutput: dac parameter not valid\n", XMC_DAC_IS_DAC_VALID
 798:C:/Users/Admin/DaveWorkspaces/XMC4300_PWMTest/Libraries/XMCLib/inc\xmc_dac.h ****   XMC_ASSERT("XMC_DAC_CH_DisablePatternSignOutput: channel parameter not valid\n", XMC_DAC_IS_CHANN
 799:C:/Users/Admin/DaveWorkspaces/XMC4300_PWMTest/Libraries/XMCLib/inc\xmc_dac.h ****   
 800:C:/Users/Admin/DaveWorkspaces/XMC4300_PWMTest/Libraries/XMCLib/inc\xmc_dac.h ****   dac->DACCFG[channel].low &= ~DAC_DAC0CFG0_SIGNEN_Msk;
 151              	 .loc 1 800 0
 152 000c F878     	 ldrb r0,[r7,#3]
 153 000e FB78     	 ldrb r3,[r7,#3]
 154 0010 7A68     	 ldr r2,[r7,#4]
 155 0012 DB00     	 lsls r3,r3,#3
 156 0014 1344     	 add r3,r3,r2
 157 0016 5B68     	 ldr r3,[r3,#4]
 158 0018 23F00052 	 bic r2,r3,#536870912
 159 001c 7968     	 ldr r1,[r7,#4]
 160 001e C300     	 lsls r3,r0,#3
 161 0020 0B44     	 add r3,r3,r1
 162 0022 5A60     	 str r2,[r3,#4]
 801:C:/Users/Admin/DaveWorkspaces/XMC4300_PWMTest/Libraries/XMCLib/inc\xmc_dac.h **** }
 163              	 .loc 1 801 0
 164 0024 0C37     	 adds r7,r7,#12
 165              	.LCFI15:
 166              	 .cfi_def_cfa_offset 4
 167 0026 BD46     	 mov sp,r7
 168              	.LCFI16:
 169              	 .cfi_def_cfa_register 13
 170              	 
 171 0028 5DF8047B 	 ldr r7,[sp],#4
 172              	.LCFI17:
 173              	 .cfi_restore 7
 174              	 .cfi_def_cfa_offset 0
 175 002c 7047     	 bx lr
 176              	 .cfi_endproc
 177              	.LFE145:
 179 002e 00BF     	 .section .text.XMC_DAC_CH_SetRampStart,"ax",%progbits
 180              	 .align 2
 181              	 .thumb
 182              	 .thumb_func
 184              	XMC_DAC_CH_SetRampStart:
 185              	.LFB146:
 802:C:/Users/Admin/DaveWorkspaces/XMC4300_PWMTest/Libraries/XMCLib/inc\xmc_dac.h **** 
 803:C:/Users/Admin/DaveWorkspaces/XMC4300_PWMTest/Libraries/XMCLib/inc\xmc_dac.h **** /**
 804:C:/Users/Admin/DaveWorkspaces/XMC4300_PWMTest/Libraries/XMCLib/inc\xmc_dac.h ****  * @param dac Pointer to an instance of DAC module
 805:C:/Users/Admin/DaveWorkspaces/XMC4300_PWMTest/Libraries/XMCLib/inc\xmc_dac.h ****  * @param channel DAC channel number
 806:C:/Users/Admin/DaveWorkspaces/XMC4300_PWMTest/Libraries/XMCLib/inc\xmc_dac.h ****  * @param start Ramp start point [0-4095]
 807:C:/Users/Admin/DaveWorkspaces/XMC4300_PWMTest/Libraries/XMCLib/inc\xmc_dac.h ****  *
 808:C:/Users/Admin/DaveWorkspaces/XMC4300_PWMTest/Libraries/XMCLib/inc\xmc_dac.h ****  * @return None
 809:C:/Users/Admin/DaveWorkspaces/XMC4300_PWMTest/Libraries/XMCLib/inc\xmc_dac.h ****  *
 810:C:/Users/Admin/DaveWorkspaces/XMC4300_PWMTest/Libraries/XMCLib/inc\xmc_dac.h ****  * \par<b>Description:</b><br>
 811:C:/Users/Admin/DaveWorkspaces/XMC4300_PWMTest/Libraries/XMCLib/inc\xmc_dac.h ****  * Sets the ramp start value by writing to the register \a DAC0DATA (for \e channel 0) or \a DAC1DA
 812:C:/Users/Admin/DaveWorkspaces/XMC4300_PWMTest/Libraries/XMCLib/inc\xmc_dac.h ****  * If the ramp counter reaches its stop value, it restarts from the \a start value with the next tr
 813:C:/Users/Admin/DaveWorkspaces/XMC4300_PWMTest/Libraries/XMCLib/inc\xmc_dac.h ****  * Ensure \e start value is lower than the stop value.
 814:C:/Users/Admin/DaveWorkspaces/XMC4300_PWMTest/Libraries/XMCLib/inc\xmc_dac.h ****  *
 815:C:/Users/Admin/DaveWorkspaces/XMC4300_PWMTest/Libraries/XMCLib/inc\xmc_dac.h ****  * \par<b>Note:</b><br>
 816:C:/Users/Admin/DaveWorkspaces/XMC4300_PWMTest/Libraries/XMCLib/inc\xmc_dac.h ****  * Call this API if the \a channel is set to Ramp mode.
 817:C:/Users/Admin/DaveWorkspaces/XMC4300_PWMTest/Libraries/XMCLib/inc\xmc_dac.h ****  * Start value is a 12 bit data.
 818:C:/Users/Admin/DaveWorkspaces/XMC4300_PWMTest/Libraries/XMCLib/inc\xmc_dac.h ****  *
 819:C:/Users/Admin/DaveWorkspaces/XMC4300_PWMTest/Libraries/XMCLib/inc\xmc_dac.h ****  * \par<b>Related APIs:</b><BR>
 820:C:/Users/Admin/DaveWorkspaces/XMC4300_PWMTest/Libraries/XMCLib/inc\xmc_dac.h ****  * XMC_DAC_CH_GetRampStart(), XMC_DAC_CH_GetRampStop(), XMC_DAC_CH_SetRampStop()\n\n\n
 821:C:/Users/Admin/DaveWorkspaces/XMC4300_PWMTest/Libraries/XMCLib/inc\xmc_dac.h ****  *
 822:C:/Users/Admin/DaveWorkspaces/XMC4300_PWMTest/Libraries/XMCLib/inc\xmc_dac.h ****  */
 823:C:/Users/Admin/DaveWorkspaces/XMC4300_PWMTest/Libraries/XMCLib/inc\xmc_dac.h **** __STATIC_INLINE void XMC_DAC_CH_SetRampStart(XMC_DAC_t *const dac, const uint8_t channel, const uin
 824:C:/Users/Admin/DaveWorkspaces/XMC4300_PWMTest/Libraries/XMCLib/inc\xmc_dac.h **** {
 186              	 .loc 1 824 0
 187              	 .cfi_startproc
 188              	 
 189              	 
 190              	 
 191 0000 80B4     	 push {r7}
 192              	.LCFI18:
 193              	 .cfi_def_cfa_offset 4
 194              	 .cfi_offset 7,-4
 195 0002 83B0     	 sub sp,sp,#12
 196              	.LCFI19:
 197              	 .cfi_def_cfa_offset 16
 198 0004 00AF     	 add r7,sp,#0
 199              	.LCFI20:
 200              	 .cfi_def_cfa_register 7
 201 0006 7860     	 str r0,[r7,#4]
 202 0008 0B46     	 mov r3,r1
 203 000a FB70     	 strb r3,[r7,#3]
 204 000c 1346     	 mov r3,r2
 205 000e 3B80     	 strh r3,[r7]
 825:C:/Users/Admin/DaveWorkspaces/XMC4300_PWMTest/Libraries/XMCLib/inc\xmc_dac.h ****   XMC_ASSERT("XMC_DAC_CH_SetRampStart: dac parameter not valid\n", XMC_DAC_IS_DAC_VALID(dac));
 826:C:/Users/Admin/DaveWorkspaces/XMC4300_PWMTest/Libraries/XMCLib/inc\xmc_dac.h ****   XMC_ASSERT("XMC_DAC_CH_SetRampStart: channel parameter not valid\n", XMC_DAC_IS_CHANNEL_VALID(cha
 827:C:/Users/Admin/DaveWorkspaces/XMC4300_PWMTest/Libraries/XMCLib/inc\xmc_dac.h ****   
 828:C:/Users/Admin/DaveWorkspaces/XMC4300_PWMTest/Libraries/XMCLib/inc\xmc_dac.h ****   dac->DACDATA[channel] = start;
 206              	 .loc 1 828 0
 207 0010 FB78     	 ldrb r3,[r7,#3]
 208 0012 3A88     	 ldrh r2,[r7]
 209 0014 7968     	 ldr r1,[r7,#4]
 210 0016 0433     	 adds r3,r3,#4
 211 0018 9B00     	 lsls r3,r3,#2
 212 001a 0B44     	 add r3,r3,r1
 213 001c 5A60     	 str r2,[r3,#4]
 829:C:/Users/Admin/DaveWorkspaces/XMC4300_PWMTest/Libraries/XMCLib/inc\xmc_dac.h **** }
 214              	 .loc 1 829 0
 215 001e 0C37     	 adds r7,r7,#12
 216              	.LCFI21:
 217              	 .cfi_def_cfa_offset 4
 218 0020 BD46     	 mov sp,r7
 219              	.LCFI22:
 220              	 .cfi_def_cfa_register 13
 221              	 
 222 0022 5DF8047B 	 ldr r7,[sp],#4
 223              	.LCFI23:
 224              	 .cfi_restore 7
 225              	 .cfi_def_cfa_offset 0
 226 0026 7047     	 bx lr
 227              	 .cfi_endproc
 228              	.LFE146:
 230              	 .section .text.XMC_DAC_CH_SetRampStop,"ax",%progbits
 231              	 .align 2
 232              	 .thumb
 233              	 .thumb_func
 235              	XMC_DAC_CH_SetRampStop:
 236              	.LFB148:
 830:C:/Users/Admin/DaveWorkspaces/XMC4300_PWMTest/Libraries/XMCLib/inc\xmc_dac.h **** 
 831:C:/Users/Admin/DaveWorkspaces/XMC4300_PWMTest/Libraries/XMCLib/inc\xmc_dac.h **** /**
 832:C:/Users/Admin/DaveWorkspaces/XMC4300_PWMTest/Libraries/XMCLib/inc\xmc_dac.h ****  * @param dac Pointer to an instance of DAC module
 833:C:/Users/Admin/DaveWorkspaces/XMC4300_PWMTest/Libraries/XMCLib/inc\xmc_dac.h ****  * @param channel DAC channel number
 834:C:/Users/Admin/DaveWorkspaces/XMC4300_PWMTest/Libraries/XMCLib/inc\xmc_dac.h ****  *
 835:C:/Users/Admin/DaveWorkspaces/XMC4300_PWMTest/Libraries/XMCLib/inc\xmc_dac.h ****  * @return uint16_t
 836:C:/Users/Admin/DaveWorkspaces/XMC4300_PWMTest/Libraries/XMCLib/inc\xmc_dac.h ****  *
 837:C:/Users/Admin/DaveWorkspaces/XMC4300_PWMTest/Libraries/XMCLib/inc\xmc_dac.h ****  * \par<b>Description:</b><br>
 838:C:/Users/Admin/DaveWorkspaces/XMC4300_PWMTest/Libraries/XMCLib/inc\xmc_dac.h ****  * Gets the ramp start value by reading \a DATA0 bit-field of \a DAC0DATA register (for channel 0) 
 839:C:/Users/Admin/DaveWorkspaces/XMC4300_PWMTest/Libraries/XMCLib/inc\xmc_dac.h ****  * If the ramp counter reaches its stop value, it restarts from the start value with the next trigg
 840:C:/Users/Admin/DaveWorkspaces/XMC4300_PWMTest/Libraries/XMCLib/inc\xmc_dac.h ****  *
 841:C:/Users/Admin/DaveWorkspaces/XMC4300_PWMTest/Libraries/XMCLib/inc\xmc_dac.h ****  * \par<b>Note:</b><br>
 842:C:/Users/Admin/DaveWorkspaces/XMC4300_PWMTest/Libraries/XMCLib/inc\xmc_dac.h ****  * Call this API if the \e channel is set to Ramp mode.
 843:C:/Users/Admin/DaveWorkspaces/XMC4300_PWMTest/Libraries/XMCLib/inc\xmc_dac.h ****  *
 844:C:/Users/Admin/DaveWorkspaces/XMC4300_PWMTest/Libraries/XMCLib/inc\xmc_dac.h ****  * \par<b>Related APIs:</b><BR>
 845:C:/Users/Admin/DaveWorkspaces/XMC4300_PWMTest/Libraries/XMCLib/inc\xmc_dac.h ****  * XMC_DAC_CH_SetRampStart(), XMC_DAC_CH_StartRampMode(), XMC_DAC_CH_GetRampStop(), XMC_DAC_CH_SetR
 846:C:/Users/Admin/DaveWorkspaces/XMC4300_PWMTest/Libraries/XMCLib/inc\xmc_dac.h ****  *
 847:C:/Users/Admin/DaveWorkspaces/XMC4300_PWMTest/Libraries/XMCLib/inc\xmc_dac.h ****  */
 848:C:/Users/Admin/DaveWorkspaces/XMC4300_PWMTest/Libraries/XMCLib/inc\xmc_dac.h **** __STATIC_INLINE uint16_t XMC_DAC_CH_GetRampStart(XMC_DAC_t *const dac, const uint8_t channel)
 849:C:/Users/Admin/DaveWorkspaces/XMC4300_PWMTest/Libraries/XMCLib/inc\xmc_dac.h **** {
 850:C:/Users/Admin/DaveWorkspaces/XMC4300_PWMTest/Libraries/XMCLib/inc\xmc_dac.h ****   XMC_ASSERT("XMC_DAC_CH_GetRampStart: dac parameter not valid\n", XMC_DAC_IS_DAC_VALID(dac));
 851:C:/Users/Admin/DaveWorkspaces/XMC4300_PWMTest/Libraries/XMCLib/inc\xmc_dac.h ****   XMC_ASSERT("XMC_DAC_CH_GetRampStart: channel parameter not valid\n", XMC_DAC_IS_CHANNEL_VALID(cha
 852:C:/Users/Admin/DaveWorkspaces/XMC4300_PWMTest/Libraries/XMCLib/inc\xmc_dac.h ****   
 853:C:/Users/Admin/DaveWorkspaces/XMC4300_PWMTest/Libraries/XMCLib/inc\xmc_dac.h ****   return (uint16_t)(dac->DACDATA[channel]);
 854:C:/Users/Admin/DaveWorkspaces/XMC4300_PWMTest/Libraries/XMCLib/inc\xmc_dac.h **** }
 855:C:/Users/Admin/DaveWorkspaces/XMC4300_PWMTest/Libraries/XMCLib/inc\xmc_dac.h **** 
 856:C:/Users/Admin/DaveWorkspaces/XMC4300_PWMTest/Libraries/XMCLib/inc\xmc_dac.h **** /**
 857:C:/Users/Admin/DaveWorkspaces/XMC4300_PWMTest/Libraries/XMCLib/inc\xmc_dac.h ****  * @param dac Pointer to an instance of DAC module
 858:C:/Users/Admin/DaveWorkspaces/XMC4300_PWMTest/Libraries/XMCLib/inc\xmc_dac.h ****  * @param channel DAC channel number
 859:C:/Users/Admin/DaveWorkspaces/XMC4300_PWMTest/Libraries/XMCLib/inc\xmc_dac.h ****  * @param stop Ramp stop point [0-4095]
 860:C:/Users/Admin/DaveWorkspaces/XMC4300_PWMTest/Libraries/XMCLib/inc\xmc_dac.h ****  *
 861:C:/Users/Admin/DaveWorkspaces/XMC4300_PWMTest/Libraries/XMCLib/inc\xmc_dac.h ****  * @return None
 862:C:/Users/Admin/DaveWorkspaces/XMC4300_PWMTest/Libraries/XMCLib/inc\xmc_dac.h ****  *
 863:C:/Users/Admin/DaveWorkspaces/XMC4300_PWMTest/Libraries/XMCLib/inc\xmc_dac.h ****  * \par<b>Description:</b><br>
 864:C:/Users/Admin/DaveWorkspaces/XMC4300_PWMTest/Libraries/XMCLib/inc\xmc_dac.h ****  * Sets the ramp stop value by writing to the bit-field \a DATA0 (for \e channel 0) or \a DATA1 (fo
 865:C:/Users/Admin/DaveWorkspaces/XMC4300_PWMTest/Libraries/XMCLib/inc\xmc_dac.h ****  * If the ramp counter reaches its \a stop value, it restarts from the start value with the next tr
 866:C:/Users/Admin/DaveWorkspaces/XMC4300_PWMTest/Libraries/XMCLib/inc\xmc_dac.h ****  * Ensure \e stop value is higher than the start value.
 867:C:/Users/Admin/DaveWorkspaces/XMC4300_PWMTest/Libraries/XMCLib/inc\xmc_dac.h ****  *
 868:C:/Users/Admin/DaveWorkspaces/XMC4300_PWMTest/Libraries/XMCLib/inc\xmc_dac.h ****  * \par<b>Note:</b><br>
 869:C:/Users/Admin/DaveWorkspaces/XMC4300_PWMTest/Libraries/XMCLib/inc\xmc_dac.h ****  * Call this API if the \e channel is set to Ramp mode.
 870:C:/Users/Admin/DaveWorkspaces/XMC4300_PWMTest/Libraries/XMCLib/inc\xmc_dac.h ****  * Stop value is a 12 bit data.
 871:C:/Users/Admin/DaveWorkspaces/XMC4300_PWMTest/Libraries/XMCLib/inc\xmc_dac.h ****  *
 872:C:/Users/Admin/DaveWorkspaces/XMC4300_PWMTest/Libraries/XMCLib/inc\xmc_dac.h ****  * \par<b>Related APIs:</b><BR>
 873:C:/Users/Admin/DaveWorkspaces/XMC4300_PWMTest/Libraries/XMCLib/inc\xmc_dac.h ****  * XMC_DAC_CH_GetRampStop(), XMC_DAC_CH_SetRampStart()\n\n\n
 874:C:/Users/Admin/DaveWorkspaces/XMC4300_PWMTest/Libraries/XMCLib/inc\xmc_dac.h ****  *
 875:C:/Users/Admin/DaveWorkspaces/XMC4300_PWMTest/Libraries/XMCLib/inc\xmc_dac.h ****  */
 876:C:/Users/Admin/DaveWorkspaces/XMC4300_PWMTest/Libraries/XMCLib/inc\xmc_dac.h **** __STATIC_INLINE void XMC_DAC_CH_SetRampStop(XMC_DAC_t *const dac, const uint8_t channel, const uint
 877:C:/Users/Admin/DaveWorkspaces/XMC4300_PWMTest/Libraries/XMCLib/inc\xmc_dac.h **** {
 237              	 .loc 1 877 0
 238              	 .cfi_startproc
 239              	 
 240              	 
 241              	 
 242 0000 80B4     	 push {r7}
 243              	.LCFI24:
 244              	 .cfi_def_cfa_offset 4
 245              	 .cfi_offset 7,-4
 246 0002 83B0     	 sub sp,sp,#12
 247              	.LCFI25:
 248              	 .cfi_def_cfa_offset 16
 249 0004 00AF     	 add r7,sp,#0
 250              	.LCFI26:
 251              	 .cfi_def_cfa_register 7
 252 0006 7860     	 str r0,[r7,#4]
 253 0008 0B46     	 mov r3,r1
 254 000a FB70     	 strb r3,[r7,#3]
 255 000c 1346     	 mov r3,r2
 256 000e 3B80     	 strh r3,[r7]
 878:C:/Users/Admin/DaveWorkspaces/XMC4300_PWMTest/Libraries/XMCLib/inc\xmc_dac.h ****   XMC_ASSERT("XMC_DAC_CH_SetRampStop: dac parameter not valid\n", XMC_DAC_IS_DAC_VALID(dac));
 879:C:/Users/Admin/DaveWorkspaces/XMC4300_PWMTest/Libraries/XMCLib/inc\xmc_dac.h ****   XMC_ASSERT("XMC_DAC_CH_SetRampStop: channel parameter not valid\n", XMC_DAC_IS_CHANNEL_VALID(chan
 880:C:/Users/Admin/DaveWorkspaces/XMC4300_PWMTest/Libraries/XMCLib/inc\xmc_dac.h ****     
 881:C:/Users/Admin/DaveWorkspaces/XMC4300_PWMTest/Libraries/XMCLib/inc\xmc_dac.h ****   dac->DAC01DATA = (dac->DAC01DATA & ~(DAC_DAC01DATA_DATA0_Msk << (channel * DAC_DAC01DATA_DATA1_Po
 257              	 .loc 1 881 0
 258 0010 7B68     	 ldr r3,[r7,#4]
 259 0012 DA69     	 ldr r2,[r3,#28]
 260 0014 FB78     	 ldrb r3,[r7,#3]
 261 0016 1B01     	 lsls r3,r3,#4
 262 0018 1946     	 mov r1,r3
 263 001a 40F6FF73 	 movw r3,#4095
 264 001e 8B40     	 lsls r3,r3,r1
 265 0020 DB43     	 mvns r3,r3
 266 0022 1340     	 ands r3,r3,r2
 882:C:/Users/Admin/DaveWorkspaces/XMC4300_PWMTest/Libraries/XMCLib/inc\xmc_dac.h ****                (stop << (channel * DAC_DAC01DATA_DATA1_Pos));
 267              	 .loc 1 882 0
 268 0024 3A88     	 ldrh r2,[r7]
 269 0026 F978     	 ldrb r1,[r7,#3]
 270 0028 0901     	 lsls r1,r1,#4
 271 002a 8A40     	 lsls r2,r2,r1
 881:C:/Users/Admin/DaveWorkspaces/XMC4300_PWMTest/Libraries/XMCLib/inc\xmc_dac.h ****                (stop << (channel * DAC_DAC01DATA_DATA1_Pos));
 272              	 .loc 1 881 0
 273 002c 1A43     	 orrs r2,r2,r3
 274 002e 7B68     	 ldr r3,[r7,#4]
 275 0030 DA61     	 str r2,[r3,#28]
 883:C:/Users/Admin/DaveWorkspaces/XMC4300_PWMTest/Libraries/XMCLib/inc\xmc_dac.h **** }
 276              	 .loc 1 883 0
 277 0032 0C37     	 adds r7,r7,#12
 278              	.LCFI27:
 279              	 .cfi_def_cfa_offset 4
 280 0034 BD46     	 mov sp,r7
 281              	.LCFI28:
 282              	 .cfi_def_cfa_register 13
 283              	 
 284 0036 5DF8047B 	 ldr r7,[sp],#4
 285              	.LCFI29:
 286              	 .cfi_restore 7
 287              	 .cfi_def_cfa_offset 0
 288 003a 7047     	 bx lr
 289              	 .cfi_endproc
 290              	.LFE148:
 292              	 .section .text.XMC_DAC_CH_SetTrigger,"ax",%progbits
 293              	 .align 2
 294              	 .thumb
 295              	 .thumb_func
 297              	XMC_DAC_CH_SetTrigger:
 298              	.LFB150:
 884:C:/Users/Admin/DaveWorkspaces/XMC4300_PWMTest/Libraries/XMCLib/inc\xmc_dac.h **** 
 885:C:/Users/Admin/DaveWorkspaces/XMC4300_PWMTest/Libraries/XMCLib/inc\xmc_dac.h **** /**
 886:C:/Users/Admin/DaveWorkspaces/XMC4300_PWMTest/Libraries/XMCLib/inc\xmc_dac.h ****  * @param dac Pointer to an instance of DAC module
 887:C:/Users/Admin/DaveWorkspaces/XMC4300_PWMTest/Libraries/XMCLib/inc\xmc_dac.h ****  * @param channel DAC channel number
 888:C:/Users/Admin/DaveWorkspaces/XMC4300_PWMTest/Libraries/XMCLib/inc\xmc_dac.h ****  *
 889:C:/Users/Admin/DaveWorkspaces/XMC4300_PWMTest/Libraries/XMCLib/inc\xmc_dac.h ****  * @return uint16_t
 890:C:/Users/Admin/DaveWorkspaces/XMC4300_PWMTest/Libraries/XMCLib/inc\xmc_dac.h ****  *
 891:C:/Users/Admin/DaveWorkspaces/XMC4300_PWMTest/Libraries/XMCLib/inc\xmc_dac.h ****  * \par<b>Description:</b><br>
 892:C:/Users/Admin/DaveWorkspaces/XMC4300_PWMTest/Libraries/XMCLib/inc\xmc_dac.h ****  * Gets the ramp stop value by reading \a DATA0 bit-field of \a DAC01DATA register (for channel 0) 
 893:C:/Users/Admin/DaveWorkspaces/XMC4300_PWMTest/Libraries/XMCLib/inc\xmc_dac.h ****  * If the ramp counter reaches its stop value, it restarts from the start value with the next trigg
 894:C:/Users/Admin/DaveWorkspaces/XMC4300_PWMTest/Libraries/XMCLib/inc\xmc_dac.h ****  *
 895:C:/Users/Admin/DaveWorkspaces/XMC4300_PWMTest/Libraries/XMCLib/inc\xmc_dac.h ****  * \par<b>Note:</b><br>
 896:C:/Users/Admin/DaveWorkspaces/XMC4300_PWMTest/Libraries/XMCLib/inc\xmc_dac.h ****  * Call this API if the \e channel is set to Ramp mode.
 897:C:/Users/Admin/DaveWorkspaces/XMC4300_PWMTest/Libraries/XMCLib/inc\xmc_dac.h ****  *
 898:C:/Users/Admin/DaveWorkspaces/XMC4300_PWMTest/Libraries/XMCLib/inc\xmc_dac.h ****  * \par<b>Related APIs:</b><BR>
 899:C:/Users/Admin/DaveWorkspaces/XMC4300_PWMTest/Libraries/XMCLib/inc\xmc_dac.h ****  * XMC_DAC_CH_SetRampStop(), XMC_DAC_CH_StartRampMode(), XMC_DAC_CH_GetRampStart()\n\n\n
 900:C:/Users/Admin/DaveWorkspaces/XMC4300_PWMTest/Libraries/XMCLib/inc\xmc_dac.h ****  *
 901:C:/Users/Admin/DaveWorkspaces/XMC4300_PWMTest/Libraries/XMCLib/inc\xmc_dac.h ****  */
 902:C:/Users/Admin/DaveWorkspaces/XMC4300_PWMTest/Libraries/XMCLib/inc\xmc_dac.h **** __STATIC_INLINE uint16_t XMC_DAC_CH_GetRampStop(XMC_DAC_t *const dac, const uint8_t channel)
 903:C:/Users/Admin/DaveWorkspaces/XMC4300_PWMTest/Libraries/XMCLib/inc\xmc_dac.h **** {
 904:C:/Users/Admin/DaveWorkspaces/XMC4300_PWMTest/Libraries/XMCLib/inc\xmc_dac.h ****   XMC_ASSERT("XMC_DAC_CH_GetRampStop: dac parameter not valid\n", XMC_DAC_IS_DAC_VALID(dac));
 905:C:/Users/Admin/DaveWorkspaces/XMC4300_PWMTest/Libraries/XMCLib/inc\xmc_dac.h ****   XMC_ASSERT("XMC_DAC_CH_GetRampStop: channel parameter not valid\n", XMC_DAC_IS_CHANNEL_VALID(chan
 906:C:/Users/Admin/DaveWorkspaces/XMC4300_PWMTest/Libraries/XMCLib/inc\xmc_dac.h **** 
 907:C:/Users/Admin/DaveWorkspaces/XMC4300_PWMTest/Libraries/XMCLib/inc\xmc_dac.h ****   return((dac->DAC01DATA >> (channel * DAC_DAC01DATA_DATA1_Pos)) & DAC_DAC01DATA_DATA0_Msk);
 908:C:/Users/Admin/DaveWorkspaces/XMC4300_PWMTest/Libraries/XMCLib/inc\xmc_dac.h **** }
 909:C:/Users/Admin/DaveWorkspaces/XMC4300_PWMTest/Libraries/XMCLib/inc\xmc_dac.h **** 
 910:C:/Users/Admin/DaveWorkspaces/XMC4300_PWMTest/Libraries/XMCLib/inc\xmc_dac.h **** /**
 911:C:/Users/Admin/DaveWorkspaces/XMC4300_PWMTest/Libraries/XMCLib/inc\xmc_dac.h ****  * @param dac Pointer to an instance of DAC module
 912:C:/Users/Admin/DaveWorkspaces/XMC4300_PWMTest/Libraries/XMCLib/inc\xmc_dac.h ****  * @param channel DAC channel number
 913:C:/Users/Admin/DaveWorkspaces/XMC4300_PWMTest/Libraries/XMCLib/inc\xmc_dac.h ****  * @param trigger Trigger source
 914:C:/Users/Admin/DaveWorkspaces/XMC4300_PWMTest/Libraries/XMCLib/inc\xmc_dac.h ****  *
 915:C:/Users/Admin/DaveWorkspaces/XMC4300_PWMTest/Libraries/XMCLib/inc\xmc_dac.h ****  * @return None
 916:C:/Users/Admin/DaveWorkspaces/XMC4300_PWMTest/Libraries/XMCLib/inc\xmc_dac.h ****  *
 917:C:/Users/Admin/DaveWorkspaces/XMC4300_PWMTest/Libraries/XMCLib/inc\xmc_dac.h ****  * \par<b>Description:</b><br>
 918:C:/Users/Admin/DaveWorkspaces/XMC4300_PWMTest/Libraries/XMCLib/inc\xmc_dac.h ****  * Selects the \e trigger source for the \e channel by configuring the bits TRIGSEL & TRIGMOD of CF
 919:C:/Users/Admin/DaveWorkspaces/XMC4300_PWMTest/Libraries/XMCLib/inc\xmc_dac.h ****  *
 920:C:/Users/Admin/DaveWorkspaces/XMC4300_PWMTest/Libraries/XMCLib/inc\xmc_dac.h ****  * \par
 921:C:/Users/Admin/DaveWorkspaces/XMC4300_PWMTest/Libraries/XMCLib/inc\xmc_dac.h ****  * Channel \a channel trigger source is selected by \a TRIGSEL bit-field of \a DAC0CFG1 register (f
 922:C:/Users/Admin/DaveWorkspaces/XMC4300_PWMTest/Libraries/XMCLib/inc\xmc_dac.h ****  *
 923:C:/Users/Admin/DaveWorkspaces/XMC4300_PWMTest/Libraries/XMCLib/inc\xmc_dac.h ****  */
 924:C:/Users/Admin/DaveWorkspaces/XMC4300_PWMTest/Libraries/XMCLib/inc\xmc_dac.h **** __STATIC_INLINE void XMC_DAC_CH_SetTrigger(XMC_DAC_t *const dac, const uint8_t channel, const XMC_D
 925:C:/Users/Admin/DaveWorkspaces/XMC4300_PWMTest/Libraries/XMCLib/inc\xmc_dac.h **** {
 299              	 .loc 1 925 0
 300              	 .cfi_startproc
 301              	 
 302              	 
 303              	 
 304 0000 80B4     	 push {r7}
 305              	.LCFI30:
 306              	 .cfi_def_cfa_offset 4
 307              	 .cfi_offset 7,-4
 308 0002 85B0     	 sub sp,sp,#20
 309              	.LCFI31:
 310              	 .cfi_def_cfa_offset 24
 311 0004 00AF     	 add r7,sp,#0
 312              	.LCFI32:
 313              	 .cfi_def_cfa_register 7
 314 0006 F860     	 str r0,[r7,#12]
 315 0008 0B46     	 mov r3,r1
 316 000a 7A60     	 str r2,[r7,#4]
 317 000c FB72     	 strb r3,[r7,#11]
 926:C:/Users/Admin/DaveWorkspaces/XMC4300_PWMTest/Libraries/XMCLib/inc\xmc_dac.h ****   XMC_ASSERT("XMC_DAC_CH_SetTrigger: dac parameter not valid\n", XMC_DAC_IS_DAC_VALID(dac));
 927:C:/Users/Admin/DaveWorkspaces/XMC4300_PWMTest/Libraries/XMCLib/inc\xmc_dac.h ****   XMC_ASSERT("XMC_DAC_CH_SetTrigger: channel parameter not valid\n", XMC_DAC_IS_CHANNEL_VALID(chann
 928:C:/Users/Admin/DaveWorkspaces/XMC4300_PWMTest/Libraries/XMCLib/inc\xmc_dac.h ****   XMC_ASSERT("XMC_DAC_CH_SetTrigger: trigger parameter not valid\n", XMC_DAC_IS_TRIGGER_VALID(trigg
 929:C:/Users/Admin/DaveWorkspaces/XMC4300_PWMTest/Libraries/XMCLib/inc\xmc_dac.h **** 
 930:C:/Users/Admin/DaveWorkspaces/XMC4300_PWMTest/Libraries/XMCLib/inc\xmc_dac.h ****   dac->DACCFG[channel].high = (dac->DACCFG[channel].high & ~(DAC_DAC0CFG1_TRIGSEL_Msk | DAC_DAC0CFG
 318              	 .loc 1 930 0
 319 000e F87A     	 ldrb r0,[r7,#11]
 320 0010 FB7A     	 ldrb r3,[r7,#11]
 321 0012 FA68     	 ldr r2,[r7,#12]
 322 0014 DB00     	 lsls r3,r3,#3
 323 0016 1344     	 add r3,r3,r2
 324 0018 9B68     	 ldr r3,[r3,#8]
 325 001a 23F4CE22 	 bic r2,r3,#421888
 326 001e 7B68     	 ldr r3,[r7,#4]
 327 0020 1A43     	 orrs r2,r2,r3
 328 0022 F968     	 ldr r1,[r7,#12]
 329 0024 C300     	 lsls r3,r0,#3
 330 0026 0B44     	 add r3,r3,r1
 331 0028 9A60     	 str r2,[r3,#8]
 931:C:/Users/Admin/DaveWorkspaces/XMC4300_PWMTest/Libraries/XMCLib/inc\xmc_dac.h ****                               trigger;
 932:C:/Users/Admin/DaveWorkspaces/XMC4300_PWMTest/Libraries/XMCLib/inc\xmc_dac.h **** }
 332              	 .loc 1 932 0
 333 002a 1437     	 adds r7,r7,#20
 334              	.LCFI33:
 335              	 .cfi_def_cfa_offset 4
 336 002c BD46     	 mov sp,r7
 337              	.LCFI34:
 338              	 .cfi_def_cfa_register 13
 339              	 
 340 002e 5DF8047B 	 ldr r7,[sp],#4
 341              	.LCFI35:
 342              	 .cfi_restore 7
 343              	 .cfi_def_cfa_offset 0
 344 0032 7047     	 bx lr
 345              	 .cfi_endproc
 346              	.LFE150:
 348              	 .section .text.XMC_DAC_CH_SetMode,"ax",%progbits
 349              	 .align 2
 350              	 .thumb
 351              	 .thumb_func
 353              	XMC_DAC_CH_SetMode:
 354              	.LFB152:
 933:C:/Users/Admin/DaveWorkspaces/XMC4300_PWMTest/Libraries/XMCLib/inc\xmc_dac.h **** 
 934:C:/Users/Admin/DaveWorkspaces/XMC4300_PWMTest/Libraries/XMCLib/inc\xmc_dac.h **** /**
 935:C:/Users/Admin/DaveWorkspaces/XMC4300_PWMTest/Libraries/XMCLib/inc\xmc_dac.h ****  * @param dac Pointer to an instance of DAC module
 936:C:/Users/Admin/DaveWorkspaces/XMC4300_PWMTest/Libraries/XMCLib/inc\xmc_dac.h ****  * @param channel DAC channel number
 937:C:/Users/Admin/DaveWorkspaces/XMC4300_PWMTest/Libraries/XMCLib/inc\xmc_dac.h ****  * @param frequency Waveform frequency in [Hz]
 938:C:/Users/Admin/DaveWorkspaces/XMC4300_PWMTest/Libraries/XMCLib/inc\xmc_dac.h ****  *
 939:C:/Users/Admin/DaveWorkspaces/XMC4300_PWMTest/Libraries/XMCLib/inc\xmc_dac.h ****  * @return XMC_DAC_CH_STATUS_t
 940:C:/Users/Admin/DaveWorkspaces/XMC4300_PWMTest/Libraries/XMCLib/inc\xmc_dac.h ****  *
 941:C:/Users/Admin/DaveWorkspaces/XMC4300_PWMTest/Libraries/XMCLib/inc\xmc_dac.h ****  * \par<b>Description:</b><br>
 942:C:/Users/Admin/DaveWorkspaces/XMC4300_PWMTest/Libraries/XMCLib/inc\xmc_dac.h ****  * Sets the \e frequency of DAC channel.
 943:C:/Users/Admin/DaveWorkspaces/XMC4300_PWMTest/Libraries/XMCLib/inc\xmc_dac.h ****  *
 944:C:/Users/Admin/DaveWorkspaces/XMC4300_PWMTest/Libraries/XMCLib/inc\xmc_dac.h ****  * \par
 945:C:/Users/Admin/DaveWorkspaces/XMC4300_PWMTest/Libraries/XMCLib/inc\xmc_dac.h ****  * The value \e frequency acts as clock divider. The smallest \e frequency divider value is 16.
 946:C:/Users/Admin/DaveWorkspaces/XMC4300_PWMTest/Libraries/XMCLib/inc\xmc_dac.h ****  * A valid \e frequency value should be within the range XMC_DAC_MIN_FREQ_DIVIDER to XMC_DAC_MAX_FR
 947:C:/Users/Admin/DaveWorkspaces/XMC4300_PWMTest/Libraries/XMCLib/inc\xmc_dac.h ****  * Frequency \a frequency is configured by setting \a FREQ bit-field of \a DAC0CFG0 register (for c
 948:C:/Users/Admin/DaveWorkspaces/XMC4300_PWMTest/Libraries/XMCLib/inc\xmc_dac.h ****  *
 949:C:/Users/Admin/DaveWorkspaces/XMC4300_PWMTest/Libraries/XMCLib/inc\xmc_dac.h ****  * \par<b>Note:</b><br>
 950:C:/Users/Admin/DaveWorkspaces/XMC4300_PWMTest/Libraries/XMCLib/inc\xmc_dac.h ****  * Call this API only for Single value mode, Data mode and Noise mode.
 951:C:/Users/Admin/DaveWorkspaces/XMC4300_PWMTest/Libraries/XMCLib/inc\xmc_dac.h ****  * Call XMC_DAC_CH_SetRampFrequency() in case of Ramp mode and XMC_DAC_CH_SetPatternFrequency() in 
 952:C:/Users/Admin/DaveWorkspaces/XMC4300_PWMTest/Libraries/XMCLib/inc\xmc_dac.h ****  *
 953:C:/Users/Admin/DaveWorkspaces/XMC4300_PWMTest/Libraries/XMCLib/inc\xmc_dac.h ****  * \par<b>Related APIs:</b><BR>
 954:C:/Users/Admin/DaveWorkspaces/XMC4300_PWMTest/Libraries/XMCLib/inc\xmc_dac.h ****  * XMC_DAC_CH_SetRampFrequency(), XMC_DAC_CH_SetPatternFrequency()\n\n\n
 955:C:/Users/Admin/DaveWorkspaces/XMC4300_PWMTest/Libraries/XMCLib/inc\xmc_dac.h ****  *
 956:C:/Users/Admin/DaveWorkspaces/XMC4300_PWMTest/Libraries/XMCLib/inc\xmc_dac.h ****  */
 957:C:/Users/Admin/DaveWorkspaces/XMC4300_PWMTest/Libraries/XMCLib/inc\xmc_dac.h **** XMC_DAC_CH_STATUS_t XMC_DAC_CH_SetFrequency(XMC_DAC_t *const dac, const uint8_t channel, const uint
 958:C:/Users/Admin/DaveWorkspaces/XMC4300_PWMTest/Libraries/XMCLib/inc\xmc_dac.h **** 
 959:C:/Users/Admin/DaveWorkspaces/XMC4300_PWMTest/Libraries/XMCLib/inc\xmc_dac.h **** /**
 960:C:/Users/Admin/DaveWorkspaces/XMC4300_PWMTest/Libraries/XMCLib/inc\xmc_dac.h ****  * @param dac Pointer to an instance of DAC module
 961:C:/Users/Admin/DaveWorkspaces/XMC4300_PWMTest/Libraries/XMCLib/inc\xmc_dac.h ****  * @param channel DAC channel number
 962:C:/Users/Admin/DaveWorkspaces/XMC4300_PWMTest/Libraries/XMCLib/inc\xmc_dac.h ****  * @param frequency [Hz]
 963:C:/Users/Admin/DaveWorkspaces/XMC4300_PWMTest/Libraries/XMCLib/inc\xmc_dac.h ****  *
 964:C:/Users/Admin/DaveWorkspaces/XMC4300_PWMTest/Libraries/XMCLib/inc\xmc_dac.h ****  * @return XMC_DAC_CH_STATUS_t
 965:C:/Users/Admin/DaveWorkspaces/XMC4300_PWMTest/Libraries/XMCLib/inc\xmc_dac.h ****  *
 966:C:/Users/Admin/DaveWorkspaces/XMC4300_PWMTest/Libraries/XMCLib/inc\xmc_dac.h ****  * \par<b>Description:</b><br>
 967:C:/Users/Admin/DaveWorkspaces/XMC4300_PWMTest/Libraries/XMCLib/inc\xmc_dac.h ****  * Sets the \e frequency of DAC channel by calling XMC_DAC_CH_SetFrequency().
 968:C:/Users/Admin/DaveWorkspaces/XMC4300_PWMTest/Libraries/XMCLib/inc\xmc_dac.h ****  *
 969:C:/Users/Admin/DaveWorkspaces/XMC4300_PWMTest/Libraries/XMCLib/inc\xmc_dac.h ****  * \par
 970:C:/Users/Admin/DaveWorkspaces/XMC4300_PWMTest/Libraries/XMCLib/inc\xmc_dac.h ****  * For the Ramp mode, the \a frequency of operation depends on the total number of sample points (\
 971:C:/Users/Admin/DaveWorkspaces/XMC4300_PWMTest/Libraries/XMCLib/inc\xmc_dac.h ****  * Frequency \e frequency is multiplied by the total number of sample points, so that each trigger 
 972:C:/Users/Admin/DaveWorkspaces/XMC4300_PWMTest/Libraries/XMCLib/inc\xmc_dac.h ****  *
 973:C:/Users/Admin/DaveWorkspaces/XMC4300_PWMTest/Libraries/XMCLib/inc\xmc_dac.h ****  * \par<b>Note:</b><br>
 974:C:/Users/Admin/DaveWorkspaces/XMC4300_PWMTest/Libraries/XMCLib/inc\xmc_dac.h ****  * Call this API only if the \a channel is set to Ramp mode.
 975:C:/Users/Admin/DaveWorkspaces/XMC4300_PWMTest/Libraries/XMCLib/inc\xmc_dac.h ****  *
 976:C:/Users/Admin/DaveWorkspaces/XMC4300_PWMTest/Libraries/XMCLib/inc\xmc_dac.h ****  * \par<b>Related APIs:</b><BR>
 977:C:/Users/Admin/DaveWorkspaces/XMC4300_PWMTest/Libraries/XMCLib/inc\xmc_dac.h ****  * XMC_DAC_CH_StartRampMode()\n\n\n
 978:C:/Users/Admin/DaveWorkspaces/XMC4300_PWMTest/Libraries/XMCLib/inc\xmc_dac.h ****  *
 979:C:/Users/Admin/DaveWorkspaces/XMC4300_PWMTest/Libraries/XMCLib/inc\xmc_dac.h ****  */
 980:C:/Users/Admin/DaveWorkspaces/XMC4300_PWMTest/Libraries/XMCLib/inc\xmc_dac.h **** XMC_DAC_CH_STATUS_t XMC_DAC_CH_SetRampFrequency(XMC_DAC_t *const dac, const uint8_t channel, const 
 981:C:/Users/Admin/DaveWorkspaces/XMC4300_PWMTest/Libraries/XMCLib/inc\xmc_dac.h **** 
 982:C:/Users/Admin/DaveWorkspaces/XMC4300_PWMTest/Libraries/XMCLib/inc\xmc_dac.h **** /**
 983:C:/Users/Admin/DaveWorkspaces/XMC4300_PWMTest/Libraries/XMCLib/inc\xmc_dac.h ****  * @param dac Pointer to an instance of DAC module
 984:C:/Users/Admin/DaveWorkspaces/XMC4300_PWMTest/Libraries/XMCLib/inc\xmc_dac.h ****  * @param channel DAC channel number
 985:C:/Users/Admin/DaveWorkspaces/XMC4300_PWMTest/Libraries/XMCLib/inc\xmc_dac.h ****  * @param frequency in [Hz]
 986:C:/Users/Admin/DaveWorkspaces/XMC4300_PWMTest/Libraries/XMCLib/inc\xmc_dac.h ****  *
 987:C:/Users/Admin/DaveWorkspaces/XMC4300_PWMTest/Libraries/XMCLib/inc\xmc_dac.h ****  * @return XMC_DAC_CH_STATUS_t
 988:C:/Users/Admin/DaveWorkspaces/XMC4300_PWMTest/Libraries/XMCLib/inc\xmc_dac.h ****  *
 989:C:/Users/Admin/DaveWorkspaces/XMC4300_PWMTest/Libraries/XMCLib/inc\xmc_dac.h ****  * \par<b>Description:</b><br>
 990:C:/Users/Admin/DaveWorkspaces/XMC4300_PWMTest/Libraries/XMCLib/inc\xmc_dac.h ****  * Sets the \e frequency of DAC channel by calling XMC_DAC_CH_SetFrequency().
 991:C:/Users/Admin/DaveWorkspaces/XMC4300_PWMTest/Libraries/XMCLib/inc\xmc_dac.h ****  *
 992:C:/Users/Admin/DaveWorkspaces/XMC4300_PWMTest/Libraries/XMCLib/inc\xmc_dac.h ****  * \par
 993:C:/Users/Admin/DaveWorkspaces/XMC4300_PWMTest/Libraries/XMCLib/inc\xmc_dac.h ****  * For the Pattern mode, the \a frequency of operation depends on the total number of sample points
 994:C:/Users/Admin/DaveWorkspaces/XMC4300_PWMTest/Libraries/XMCLib/inc\xmc_dac.h ****  * Frequency \e frequency is multiplied by the total number of sample points, so that each trigger 
 995:C:/Users/Admin/DaveWorkspaces/XMC4300_PWMTest/Libraries/XMCLib/inc\xmc_dac.h ****  *
 996:C:/Users/Admin/DaveWorkspaces/XMC4300_PWMTest/Libraries/XMCLib/inc\xmc_dac.h ****  * \par<b>Note:</b><br>
 997:C:/Users/Admin/DaveWorkspaces/XMC4300_PWMTest/Libraries/XMCLib/inc\xmc_dac.h ****  * Call this API only if the \a channel is set to Pattern mode.
 998:C:/Users/Admin/DaveWorkspaces/XMC4300_PWMTest/Libraries/XMCLib/inc\xmc_dac.h ****  *
 999:C:/Users/Admin/DaveWorkspaces/XMC4300_PWMTest/Libraries/XMCLib/inc\xmc_dac.h ****  * \par<b>Related APIs:</b><BR>
1000:C:/Users/Admin/DaveWorkspaces/XMC4300_PWMTest/Libraries/XMCLib/inc\xmc_dac.h ****  * XMC_DAC_CH_StartPatternMode()\n\n\n
1001:C:/Users/Admin/DaveWorkspaces/XMC4300_PWMTest/Libraries/XMCLib/inc\xmc_dac.h ****  *
1002:C:/Users/Admin/DaveWorkspaces/XMC4300_PWMTest/Libraries/XMCLib/inc\xmc_dac.h ****  */
1003:C:/Users/Admin/DaveWorkspaces/XMC4300_PWMTest/Libraries/XMCLib/inc\xmc_dac.h **** __STATIC_INLINE XMC_DAC_CH_STATUS_t XMC_DAC_CH_SetPatternFrequency(XMC_DAC_t *const dac,
1004:C:/Users/Admin/DaveWorkspaces/XMC4300_PWMTest/Libraries/XMCLib/inc\xmc_dac.h ****                                                                    const uint8_t channel,
1005:C:/Users/Admin/DaveWorkspaces/XMC4300_PWMTest/Libraries/XMCLib/inc\xmc_dac.h ****                                                                    const uint32_t frequency)
1006:C:/Users/Admin/DaveWorkspaces/XMC4300_PWMTest/Libraries/XMCLib/inc\xmc_dac.h **** {
1007:C:/Users/Admin/DaveWorkspaces/XMC4300_PWMTest/Libraries/XMCLib/inc\xmc_dac.h ****   XMC_ASSERT("XMC_DAC_CH_SetPatternFrequency: dac parameter not valid\n", XMC_DAC_IS_DAC_VALID(dac)
1008:C:/Users/Admin/DaveWorkspaces/XMC4300_PWMTest/Libraries/XMCLib/inc\xmc_dac.h ****   XMC_ASSERT("XMC_DAC_CH_SetPatternFrequency: channel parameter not valid\n", XMC_DAC_IS_CHANNEL_VA
1009:C:/Users/Admin/DaveWorkspaces/XMC4300_PWMTest/Libraries/XMCLib/inc\xmc_dac.h **** 
1010:C:/Users/Admin/DaveWorkspaces/XMC4300_PWMTest/Libraries/XMCLib/inc\xmc_dac.h ****   return XMC_DAC_CH_SetFrequency(dac, channel, frequency * XMC_DAC_SAMPLES_PER_PERIOD);
1011:C:/Users/Admin/DaveWorkspaces/XMC4300_PWMTest/Libraries/XMCLib/inc\xmc_dac.h **** }
1012:C:/Users/Admin/DaveWorkspaces/XMC4300_PWMTest/Libraries/XMCLib/inc\xmc_dac.h **** 
1013:C:/Users/Admin/DaveWorkspaces/XMC4300_PWMTest/Libraries/XMCLib/inc\xmc_dac.h **** /**
1014:C:/Users/Admin/DaveWorkspaces/XMC4300_PWMTest/Libraries/XMCLib/inc\xmc_dac.h ****  * @param dac Pointer to an instance of DAC module
1015:C:/Users/Admin/DaveWorkspaces/XMC4300_PWMTest/Libraries/XMCLib/inc\xmc_dac.h ****  * @param channel DAC channel number
1016:C:/Users/Admin/DaveWorkspaces/XMC4300_PWMTest/Libraries/XMCLib/inc\xmc_dac.h ****  * @param mode DAC operation mode
1017:C:/Users/Admin/DaveWorkspaces/XMC4300_PWMTest/Libraries/XMCLib/inc\xmc_dac.h ****  *
1018:C:/Users/Admin/DaveWorkspaces/XMC4300_PWMTest/Libraries/XMCLib/inc\xmc_dac.h ****  * @return None
1019:C:/Users/Admin/DaveWorkspaces/XMC4300_PWMTest/Libraries/XMCLib/inc\xmc_dac.h ****  *
1020:C:/Users/Admin/DaveWorkspaces/XMC4300_PWMTest/Libraries/XMCLib/inc\xmc_dac.h ****  * \par<b>Description:</b><br>
1021:C:/Users/Admin/DaveWorkspaces/XMC4300_PWMTest/Libraries/XMCLib/inc\xmc_dac.h ****  * Sets the operating \e mode for the \e channel by setting the \a MODE bit-field of \a DAC0CFG0 re
1022:C:/Users/Admin/DaveWorkspaces/XMC4300_PWMTest/Libraries/XMCLib/inc\xmc_dac.h ****  * Different modes of DAC operation are defined by enum XMC_DAC_CH_MODE_t.
1023:C:/Users/Admin/DaveWorkspaces/XMC4300_PWMTest/Libraries/XMCLib/inc\xmc_dac.h ****  *
1024:C:/Users/Admin/DaveWorkspaces/XMC4300_PWMTest/Libraries/XMCLib/inc\xmc_dac.h ****  */
1025:C:/Users/Admin/DaveWorkspaces/XMC4300_PWMTest/Libraries/XMCLib/inc\xmc_dac.h **** __STATIC_INLINE void XMC_DAC_CH_SetMode(XMC_DAC_t *const dac, const uint8_t channel, const XMC_DAC_
1026:C:/Users/Admin/DaveWorkspaces/XMC4300_PWMTest/Libraries/XMCLib/inc\xmc_dac.h **** {
 355              	 .loc 1 1026 0
 356              	 .cfi_startproc
 357              	 
 358              	 
 359              	 
 360 0000 80B4     	 push {r7}
 361              	.LCFI36:
 362              	 .cfi_def_cfa_offset 4
 363              	 .cfi_offset 7,-4
 364 0002 85B0     	 sub sp,sp,#20
 365              	.LCFI37:
 366              	 .cfi_def_cfa_offset 24
 367 0004 00AF     	 add r7,sp,#0
 368              	.LCFI38:
 369              	 .cfi_def_cfa_register 7
 370 0006 F860     	 str r0,[r7,#12]
 371 0008 0B46     	 mov r3,r1
 372 000a 7A60     	 str r2,[r7,#4]
 373 000c FB72     	 strb r3,[r7,#11]
1027:C:/Users/Admin/DaveWorkspaces/XMC4300_PWMTest/Libraries/XMCLib/inc\xmc_dac.h ****   XMC_ASSERT("XMC_DAC_CH_SetMode: dac parameter not valid\n", XMC_DAC_IS_DAC_VALID(dac));
1028:C:/Users/Admin/DaveWorkspaces/XMC4300_PWMTest/Libraries/XMCLib/inc\xmc_dac.h ****   XMC_ASSERT("XMC_DAC_CH_SetMode: channel parameter not valid\n", XMC_DAC_IS_CHANNEL_VALID(channel)
1029:C:/Users/Admin/DaveWorkspaces/XMC4300_PWMTest/Libraries/XMCLib/inc\xmc_dac.h ****   XMC_ASSERT("XMC_DAC_CH_SetMode: trigger parameter not valid\n", XMC_DAC_IS_MODE_VALID(mode));
1030:C:/Users/Admin/DaveWorkspaces/XMC4300_PWMTest/Libraries/XMCLib/inc\xmc_dac.h ****     
1031:C:/Users/Admin/DaveWorkspaces/XMC4300_PWMTest/Libraries/XMCLib/inc\xmc_dac.h ****   dac->DACCFG[channel].low = (dac->DACCFG[channel].low & ~DAC_DAC0CFG0_MODE_Msk) |
 374              	 .loc 1 1031 0
 375 000e F87A     	 ldrb r0,[r7,#11]
 376 0010 FB7A     	 ldrb r3,[r7,#11]
 377 0012 FA68     	 ldr r2,[r7,#12]
 378 0014 DB00     	 lsls r3,r3,#3
 379 0016 1344     	 add r3,r3,r2
 380 0018 5B68     	 ldr r3,[r3,#4]
 381 001a 23F4E002 	 bic r2,r3,#7340032
 382 001e 7B68     	 ldr r3,[r7,#4]
 383 0020 1A43     	 orrs r2,r2,r3
 384 0022 F968     	 ldr r1,[r7,#12]
 385 0024 C300     	 lsls r3,r0,#3
 386 0026 0B44     	 add r3,r3,r1
 387 0028 5A60     	 str r2,[r3,#4]
1032:C:/Users/Admin/DaveWorkspaces/XMC4300_PWMTest/Libraries/XMCLib/inc\xmc_dac.h ****                              mode;
1033:C:/Users/Admin/DaveWorkspaces/XMC4300_PWMTest/Libraries/XMCLib/inc\xmc_dac.h **** }
 388              	 .loc 1 1033 0
 389 002a 1437     	 adds r7,r7,#20
 390              	.LCFI39:
 391              	 .cfi_def_cfa_offset 4
 392 002c BD46     	 mov sp,r7
 393              	.LCFI40:
 394              	 .cfi_def_cfa_register 13
 395              	 
 396 002e 5DF8047B 	 ldr r7,[sp],#4
 397              	.LCFI41:
 398              	 .cfi_restore 7
 399              	 .cfi_def_cfa_offset 0
 400 0032 7047     	 bx lr
 401              	 .cfi_endproc
 402              	.LFE152:
 404              	 .section .text.XMC_DAC_Enable,"ax",%progbits
 405              	 .align 2
 406              	 .global XMC_DAC_Enable
 407              	 .thumb
 408              	 .thumb_func
 410              	XMC_DAC_Enable:
 411              	.LFB205:
 412              	 .file 2 "../Libraries/XMCLib/src/xmc_dac.c"
   1:../Libraries/XMCLib/src/xmc_dac.c **** /**
   2:../Libraries/XMCLib/src/xmc_dac.c ****  * @file xmc_dac.c
   3:../Libraries/XMCLib/src/xmc_dac.c ****  * @date 2015-06-19
   4:../Libraries/XMCLib/src/xmc_dac.c ****  *
   5:../Libraries/XMCLib/src/xmc_dac.c ****  * @cond
   6:../Libraries/XMCLib/src/xmc_dac.c ****  **********************************************************************************
   7:../Libraries/XMCLib/src/xmc_dac.c ****  * XMClib v2.1.24 - XMC Peripheral Driver Library 
   8:../Libraries/XMCLib/src/xmc_dac.c ****  *
   9:../Libraries/XMCLib/src/xmc_dac.c ****  * Copyright (c) 2015-2019, Infineon Technologies AG
  10:../Libraries/XMCLib/src/xmc_dac.c ****  * All rights reserved.                        
  11:../Libraries/XMCLib/src/xmc_dac.c ****  *                                             
  12:../Libraries/XMCLib/src/xmc_dac.c ****  * Redistribution and use in source and binary forms, with or without           
  13:../Libraries/XMCLib/src/xmc_dac.c ****  * modification,are permitted provided that the following conditions are met:   
  14:../Libraries/XMCLib/src/xmc_dac.c ****  *                                                                              
  15:../Libraries/XMCLib/src/xmc_dac.c ****  *   Redistributions of source code must retain the above copyright notice,      
  16:../Libraries/XMCLib/src/xmc_dac.c ****  *   this list of conditions and the following disclaimer.                        
  17:../Libraries/XMCLib/src/xmc_dac.c ****  * 
  18:../Libraries/XMCLib/src/xmc_dac.c ****  *   Redistributions in binary form must reproduce the above copyright notice,   
  19:../Libraries/XMCLib/src/xmc_dac.c ****  *   this list of conditions and the following disclaimer in the documentation    
  20:../Libraries/XMCLib/src/xmc_dac.c ****  *   and/or other materials provided with the distribution.                       
  21:../Libraries/XMCLib/src/xmc_dac.c ****  * 
  22:../Libraries/XMCLib/src/xmc_dac.c ****  *   Neither the name of the copyright holders nor the names of its contributors 
  23:../Libraries/XMCLib/src/xmc_dac.c ****  *   may be used to endorse or promote products derived from this software without
  24:../Libraries/XMCLib/src/xmc_dac.c ****  *   specific prior written permission.                                           
  25:../Libraries/XMCLib/src/xmc_dac.c ****  *                                                                              
  26:../Libraries/XMCLib/src/xmc_dac.c ****  * THIS SOFTWARE IS PROVIDED BY THE COPYRIGHT HOLDERS AND CONTRIBUTORS "AS IS"  
  27:../Libraries/XMCLib/src/xmc_dac.c ****  * AND ANY EXPRESS OR IMPLIED WARRANTIES, INCLUDING, BUT NOT LIMITED TO, THE    
  28:../Libraries/XMCLib/src/xmc_dac.c ****  * IMPLIED WARRANTIES OF MERCHANTABILITY AND FITNESS FOR A PARTICULAR PURPOSE   
  29:../Libraries/XMCLib/src/xmc_dac.c ****  * ARE  DISCLAIMED. IN NO EVENT SHALL THE COPYRIGHT HOLDER OR CONTRIBUTORS BE   
  30:../Libraries/XMCLib/src/xmc_dac.c ****  * LIABLE  FOR ANY DIRECT, INDIRECT, INCIDENTAL, SPECIAL, EXEMPLARY, OR         
  31:../Libraries/XMCLib/src/xmc_dac.c ****  * CONSEQUENTIAL DAMAGES (INCLUDING, BUT NOT LIMITED TO, PROCUREMENT OF         
  32:../Libraries/XMCLib/src/xmc_dac.c ****  * SUBSTITUTE GOODS OR  SERVICES; LOSS OF USE, DATA, OR PROFITS; OR BUSINESS    
  33:../Libraries/XMCLib/src/xmc_dac.c ****  * INTERRUPTION) HOWEVER CAUSED AND ON ANY THEORY OF LIABILITY, WHETHER IN      
  34:../Libraries/XMCLib/src/xmc_dac.c ****  * CONTRACT, STRICT LIABILITY,OR TORT (INCLUDING NEGLIGENCE OR OTHERWISE)       
  35:../Libraries/XMCLib/src/xmc_dac.c ****  * ARISING IN ANY WAY OUT OF THE USE OF THIS SOFTWARE, EVEN IF ADVISED OF THE   
  36:../Libraries/XMCLib/src/xmc_dac.c ****  * POSSIBILITY OF SUCH DAMAGE.                                                  
  37:../Libraries/XMCLib/src/xmc_dac.c ****  *                                                                              
  38:../Libraries/XMCLib/src/xmc_dac.c ****  * To improve the quality of the software, users are encouraged to share        
  39:../Libraries/XMCLib/src/xmc_dac.c ****  * modifications, enhancements or bug fixes with Infineon Technologies AG       
  40:../Libraries/XMCLib/src/xmc_dac.c ****  * dave@infineon.com).                                                          
  41:../Libraries/XMCLib/src/xmc_dac.c ****  **********************************************************************************
  42:../Libraries/XMCLib/src/xmc_dac.c ****  *
  43:../Libraries/XMCLib/src/xmc_dac.c ****  * Change History
  44:../Libraries/XMCLib/src/xmc_dac.c ****  * --------------
  45:../Libraries/XMCLib/src/xmc_dac.c ****  *
  46:../Libraries/XMCLib/src/xmc_dac.c ****  * 2015-02-18:
  47:../Libraries/XMCLib/src/xmc_dac.c ****  *     - Initial version
  48:../Libraries/XMCLib/src/xmc_dac.c ****  *
  49:../Libraries/XMCLib/src/xmc_dac.c ****  * 2015-06-19:
  50:../Libraries/XMCLib/src/xmc_dac.c ****  *     - Removed GetDriverVersion API
  51:../Libraries/XMCLib/src/xmc_dac.c ****  * @endcond 
  52:../Libraries/XMCLib/src/xmc_dac.c ****  *
  53:../Libraries/XMCLib/src/xmc_dac.c ****  */
  54:../Libraries/XMCLib/src/xmc_dac.c **** 
  55:../Libraries/XMCLib/src/xmc_dac.c **** /*******************************************************************************
  56:../Libraries/XMCLib/src/xmc_dac.c ****  * HEADER FILES
  57:../Libraries/XMCLib/src/xmc_dac.c ****  *******************************************************************************/
  58:../Libraries/XMCLib/src/xmc_dac.c **** 
  59:../Libraries/XMCLib/src/xmc_dac.c **** #include <xmc_dac.h>
  60:../Libraries/XMCLib/src/xmc_dac.c **** #include <xmc_scu.h>
  61:../Libraries/XMCLib/src/xmc_dac.c **** 
  62:../Libraries/XMCLib/src/xmc_dac.c **** /* DAC peripheral is not available on XMC1X devices. */
  63:../Libraries/XMCLib/src/xmc_dac.c **** #if defined(DAC)
  64:../Libraries/XMCLib/src/xmc_dac.c **** 
  65:../Libraries/XMCLib/src/xmc_dac.c **** /*******************************************************************************
  66:../Libraries/XMCLib/src/xmc_dac.c ****  * MACROS
  67:../Libraries/XMCLib/src/xmc_dac.c ****  *******************************************************************************/
  68:../Libraries/XMCLib/src/xmc_dac.c **** 
  69:../Libraries/XMCLib/src/xmc_dac.c **** #define XMC_DAC_MIN_FREQ_DIVIDER (16U)
  70:../Libraries/XMCLib/src/xmc_dac.c **** #define XMC_DAC_MAX_FREQ_DIVIDER (1048576U)
  71:../Libraries/XMCLib/src/xmc_dac.c **** #define XMC_DAC_DAC0PATL_PAT_BITSIZE (5U)
  72:../Libraries/XMCLib/src/xmc_dac.c **** 
  73:../Libraries/XMCLib/src/xmc_dac.c **** /*******************************************************************************
  74:../Libraries/XMCLib/src/xmc_dac.c ****  * API IMPLEMENTATION
  75:../Libraries/XMCLib/src/xmc_dac.c ****  *******************************************************************************/
  76:../Libraries/XMCLib/src/xmc_dac.c **** 
  77:../Libraries/XMCLib/src/xmc_dac.c **** /* API to enable the DAC module */
  78:../Libraries/XMCLib/src/xmc_dac.c **** void XMC_DAC_Enable(XMC_DAC_t *const dac)
  79:../Libraries/XMCLib/src/xmc_dac.c **** {
 413              	 .loc 2 79 0
 414              	 .cfi_startproc
 415              	 
 416              	 
 417 0000 80B5     	 push {r7,lr}
 418              	.LCFI42:
 419              	 .cfi_def_cfa_offset 8
 420              	 .cfi_offset 7,-8
 421              	 .cfi_offset 14,-4
 422 0002 82B0     	 sub sp,sp,#8
 423              	.LCFI43:
 424              	 .cfi_def_cfa_offset 16
 425 0004 00AF     	 add r7,sp,#0
 426              	.LCFI44:
 427              	 .cfi_def_cfa_register 7
 428 0006 7860     	 str r0,[r7,#4]
  80:../Libraries/XMCLib/src/xmc_dac.c ****   XMC_UNUSED_ARG(dac);
  81:../Libraries/XMCLib/src/xmc_dac.c ****   
  82:../Libraries/XMCLib/src/xmc_dac.c **** #if defined(CLOCK_GATING_SUPPORTED)
  83:../Libraries/XMCLib/src/xmc_dac.c ****   XMC_SCU_CLOCK_UngatePeripheralClock(XMC_SCU_PERIPHERAL_CLOCK_DAC);
 429              	 .loc 2 83 0
 430 0008 0448     	 ldr r0,.L9
 431 000a FFF7FEFF 	 bl XMC_SCU_CLOCK_UngatePeripheralClock
  84:../Libraries/XMCLib/src/xmc_dac.c **** #endif
  85:../Libraries/XMCLib/src/xmc_dac.c ****   XMC_SCU_RESET_DeassertPeripheralReset(XMC_SCU_PERIPHERAL_RESET_DAC);
 432              	 .loc 2 85 0
 433 000e 0348     	 ldr r0,.L9
 434 0010 FFF7FEFF 	 bl XMC_SCU_RESET_DeassertPeripheralReset
  86:../Libraries/XMCLib/src/xmc_dac.c **** }
 435              	 .loc 2 86 0
 436 0014 0837     	 adds r7,r7,#8
 437              	.LCFI45:
 438              	 .cfi_def_cfa_offset 8
 439 0016 BD46     	 mov sp,r7
 440              	.LCFI46:
 441              	 .cfi_def_cfa_register 13
 442              	 
 443 0018 80BD     	 pop {r7,pc}
 444              	.L10:
 445 001a 00BF     	 .align 2
 446              	.L9:
 447 001c 20000010 	 .word 268435488
 448              	 .cfi_endproc
 449              	.LFE205:
 451              	 .section .text.XMC_DAC_Disable,"ax",%progbits
 452              	 .align 2
 453              	 .global XMC_DAC_Disable
 454              	 .thumb
 455              	 .thumb_func
 457              	XMC_DAC_Disable:
 458              	.LFB206:
  87:../Libraries/XMCLib/src/xmc_dac.c **** 
  88:../Libraries/XMCLib/src/xmc_dac.c **** /* API to disable the DAC module */
  89:../Libraries/XMCLib/src/xmc_dac.c **** void XMC_DAC_Disable(XMC_DAC_t *const dac)
  90:../Libraries/XMCLib/src/xmc_dac.c **** {
 459              	 .loc 2 90 0
 460              	 .cfi_startproc
 461              	 
 462              	 
 463 0000 80B5     	 push {r7,lr}
 464              	.LCFI47:
 465              	 .cfi_def_cfa_offset 8
 466              	 .cfi_offset 7,-8
 467              	 .cfi_offset 14,-4
 468 0002 82B0     	 sub sp,sp,#8
 469              	.LCFI48:
 470              	 .cfi_def_cfa_offset 16
 471 0004 00AF     	 add r7,sp,#0
 472              	.LCFI49:
 473              	 .cfi_def_cfa_register 7
 474 0006 7860     	 str r0,[r7,#4]
  91:../Libraries/XMCLib/src/xmc_dac.c ****   XMC_UNUSED_ARG(dac);
  92:../Libraries/XMCLib/src/xmc_dac.c **** 
  93:../Libraries/XMCLib/src/xmc_dac.c ****   XMC_SCU_RESET_AssertPeripheralReset(XMC_SCU_PERIPHERAL_RESET_DAC);
 475              	 .loc 2 93 0
 476 0008 0448     	 ldr r0,.L12
 477 000a FFF7FEFF 	 bl XMC_SCU_RESET_AssertPeripheralReset
  94:../Libraries/XMCLib/src/xmc_dac.c **** #if defined(CLOCK_GATING_SUPPORTED)
  95:../Libraries/XMCLib/src/xmc_dac.c ****   XMC_SCU_CLOCK_GatePeripheralClock(XMC_SCU_PERIPHERAL_CLOCK_DAC);
 478              	 .loc 2 95 0
 479 000e 0348     	 ldr r0,.L12
 480 0010 FFF7FEFF 	 bl XMC_SCU_CLOCK_GatePeripheralClock
  96:../Libraries/XMCLib/src/xmc_dac.c **** #endif
  97:../Libraries/XMCLib/src/xmc_dac.c **** }
 481              	 .loc 2 97 0
 482 0014 0837     	 adds r7,r7,#8
 483              	.LCFI50:
 484              	 .cfi_def_cfa_offset 8
 485 0016 BD46     	 mov sp,r7
 486              	.LCFI51:
 487              	 .cfi_def_cfa_register 13
 488              	 
 489 0018 80BD     	 pop {r7,pc}
 490              	.L13:
 491 001a 00BF     	 .align 2
 492              	.L12:
 493 001c 20000010 	 .word 268435488
 494              	 .cfi_endproc
 495              	.LFE206:
 497              	 .section .text.XMC_DAC_IsEnabled,"ax",%progbits
 498              	 .align 2
 499              	 .global XMC_DAC_IsEnabled
 500              	 .thumb
 501              	 .thumb_func
 503              	XMC_DAC_IsEnabled:
 504              	.LFB207:
  98:../Libraries/XMCLib/src/xmc_dac.c **** 
  99:../Libraries/XMCLib/src/xmc_dac.c **** /* API to check whether DAC is enabled */
 100:../Libraries/XMCLib/src/xmc_dac.c **** bool XMC_DAC_IsEnabled(const XMC_DAC_t *const dac)
 101:../Libraries/XMCLib/src/xmc_dac.c **** {
 505              	 .loc 2 101 0
 506              	 .cfi_startproc
 507              	 
 508              	 
 509 0000 80B5     	 push {r7,lr}
 510              	.LCFI52:
 511              	 .cfi_def_cfa_offset 8
 512              	 .cfi_offset 7,-8
 513              	 .cfi_offset 14,-4
 514 0002 84B0     	 sub sp,sp,#16
 515              	.LCFI53:
 516              	 .cfi_def_cfa_offset 24
 517 0004 00AF     	 add r7,sp,#0
 518              	.LCFI54:
 519              	 .cfi_def_cfa_register 7
 520 0006 7860     	 str r0,[r7,#4]
 102:../Libraries/XMCLib/src/xmc_dac.c ****   bool status;
 103:../Libraries/XMCLib/src/xmc_dac.c **** 
 104:../Libraries/XMCLib/src/xmc_dac.c ****   XMC_UNUSED_ARG(dac);
 105:../Libraries/XMCLib/src/xmc_dac.c **** 
 106:../Libraries/XMCLib/src/xmc_dac.c ****   status = XMC_SCU_RESET_IsPeripheralResetAsserted(XMC_SCU_PERIPHERAL_RESET_DAC);
 521              	 .loc 2 106 0
 522 0008 0848     	 ldr r0,.L18
 523 000a FFF7FEFF 	 bl XMC_SCU_RESET_IsPeripheralResetAsserted
 524 000e 0346     	 mov r3,r0
 525 0010 FB73     	 strb r3,[r7,#15]
 107:../Libraries/XMCLib/src/xmc_dac.c ****   if(status == true)
 526              	 .loc 2 107 0
 527 0012 FB7B     	 ldrb r3,[r7,#15]
 528 0014 002B     	 cmp r3,#0
 529 0016 02D0     	 beq .L15
 108:../Libraries/XMCLib/src/xmc_dac.c ****   {
 109:../Libraries/XMCLib/src/xmc_dac.c ****     status = false;
 530              	 .loc 2 109 0
 531 0018 0023     	 movs r3,#0
 532 001a FB73     	 strb r3,[r7,#15]
 533 001c 01E0     	 b .L16
 534              	.L15:
 110:../Libraries/XMCLib/src/xmc_dac.c ****   }
 111:../Libraries/XMCLib/src/xmc_dac.c ****   else
 112:../Libraries/XMCLib/src/xmc_dac.c ****   {
 113:../Libraries/XMCLib/src/xmc_dac.c ****     status = true;
 535              	 .loc 2 113 0
 536 001e 0123     	 movs r3,#1
 537 0020 FB73     	 strb r3,[r7,#15]
 538              	.L16:
 114:../Libraries/XMCLib/src/xmc_dac.c ****   }
 115:../Libraries/XMCLib/src/xmc_dac.c ****   return (status);
 539              	 .loc 2 115 0
 540 0022 FB7B     	 ldrb r3,[r7,#15]
 116:../Libraries/XMCLib/src/xmc_dac.c **** }
 541              	 .loc 2 116 0
 542 0024 1846     	 mov r0,r3
 543 0026 1037     	 adds r7,r7,#16
 544              	.LCFI55:
 545              	 .cfi_def_cfa_offset 8
 546 0028 BD46     	 mov sp,r7
 547              	.LCFI56:
 548              	 .cfi_def_cfa_register 13
 549              	 
 550 002a 80BD     	 pop {r7,pc}
 551              	.L19:
 552              	 .align 2
 553              	.L18:
 554 002c 20000010 	 .word 268435488
 555              	 .cfi_endproc
 556              	.LFE207:
 558              	 .section .text.XMC_DAC_CH_Init,"ax",%progbits
 559              	 .align 2
 560              	 .global XMC_DAC_CH_Init
 561              	 .thumb
 562              	 .thumb_func
 564              	XMC_DAC_CH_Init:
 565              	.LFB208:
 117:../Libraries/XMCLib/src/xmc_dac.c **** 
 118:../Libraries/XMCLib/src/xmc_dac.c **** /* API to initialize DAC channel configuration */
 119:../Libraries/XMCLib/src/xmc_dac.c **** void XMC_DAC_CH_Init(XMC_DAC_t *const dac, const uint8_t channel, const XMC_DAC_CH_CONFIG_t *const 
 120:../Libraries/XMCLib/src/xmc_dac.c **** {
 566              	 .loc 2 120 0
 567              	 .cfi_startproc
 568              	 
 569              	 
 570 0000 80B5     	 push {r7,lr}
 571              	.LCFI57:
 572              	 .cfi_def_cfa_offset 8
 573              	 .cfi_offset 7,-8
 574              	 .cfi_offset 14,-4
 575 0002 84B0     	 sub sp,sp,#16
 576              	.LCFI58:
 577              	 .cfi_def_cfa_offset 24
 578 0004 00AF     	 add r7,sp,#0
 579              	.LCFI59:
 580              	 .cfi_def_cfa_register 7
 581 0006 F860     	 str r0,[r7,#12]
 582 0008 0B46     	 mov r3,r1
 583 000a 7A60     	 str r2,[r7,#4]
 584 000c FB72     	 strb r3,[r7,#11]
 121:../Libraries/XMCLib/src/xmc_dac.c ****   XMC_DAC_Enable(dac);
 585              	 .loc 2 121 0
 586 000e F868     	 ldr r0,[r7,#12]
 587 0010 FFF7FEFF 	 bl XMC_DAC_Enable
 122:../Libraries/XMCLib/src/xmc_dac.c **** 
 123:../Libraries/XMCLib/src/xmc_dac.c ****   dac->DACCFG[channel].low = config->cfg0;
 588              	 .loc 2 123 0
 589 0014 FB7A     	 ldrb r3,[r7,#11]
 590 0016 7A68     	 ldr r2,[r7,#4]
 591 0018 1268     	 ldr r2,[r2]
 592 001a F968     	 ldr r1,[r7,#12]
 593 001c DB00     	 lsls r3,r3,#3
 594 001e 0B44     	 add r3,r3,r1
 595 0020 5A60     	 str r2,[r3,#4]
 124:../Libraries/XMCLib/src/xmc_dac.c ****   dac->DACCFG[channel].high = config->cfg1;
 596              	 .loc 2 124 0
 597 0022 FB7A     	 ldrb r3,[r7,#11]
 598 0024 7A68     	 ldr r2,[r7,#4]
 599 0026 5268     	 ldr r2,[r2,#4]
 600 0028 F968     	 ldr r1,[r7,#12]
 601 002a DB00     	 lsls r3,r3,#3
 602 002c 0B44     	 add r3,r3,r1
 603 002e 9A60     	 str r2,[r3,#8]
 125:../Libraries/XMCLib/src/xmc_dac.c ****   if (channel < XMC_DAC_NO_CHANNELS)
 604              	 .loc 2 125 0
 605 0030 FB7A     	 ldrb r3,[r7,#11]
 606 0032 012B     	 cmp r3,#1
 607 0034 04D8     	 bhi .L20
 126:../Libraries/XMCLib/src/xmc_dac.c ****   {
 127:../Libraries/XMCLib/src/xmc_dac.c ****     XMC_DAC_CH_EnableOutput(dac, channel);
 608              	 .loc 2 127 0
 609 0036 FB7A     	 ldrb r3,[r7,#11]
 610 0038 F868     	 ldr r0,[r7,#12]
 611 003a 1946     	 mov r1,r3
 612 003c FFF7FEFF 	 bl XMC_DAC_CH_EnableOutput
 613              	.L20:
 128:../Libraries/XMCLib/src/xmc_dac.c ****   }
 129:../Libraries/XMCLib/src/xmc_dac.c **** }
 614              	 .loc 2 129 0
 615 0040 1037     	 adds r7,r7,#16
 616              	.LCFI60:
 617              	 .cfi_def_cfa_offset 8
 618 0042 BD46     	 mov sp,r7
 619              	.LCFI61:
 620              	 .cfi_def_cfa_register 13
 621              	 
 622 0044 80BD     	 pop {r7,pc}
 623              	 .cfi_endproc
 624              	.LFE208:
 626 0046 00BF     	 .section .text.XMC_DAC_CH_SetFrequency,"ax",%progbits
 627              	 .align 2
 628              	 .global XMC_DAC_CH_SetFrequency
 629              	 .thumb
 630              	 .thumb_func
 632              	XMC_DAC_CH_SetFrequency:
 633              	.LFB209:
 130:../Libraries/XMCLib/src/xmc_dac.c **** 
 131:../Libraries/XMCLib/src/xmc_dac.c **** /* API to set the waveform frequency except in Ramp and Pattern generation mode. */
 132:../Libraries/XMCLib/src/xmc_dac.c **** XMC_DAC_CH_STATUS_t XMC_DAC_CH_SetFrequency(XMC_DAC_t *const dac,
 133:../Libraries/XMCLib/src/xmc_dac.c ****                                             const uint8_t channel,
 134:../Libraries/XMCLib/src/xmc_dac.c ****                                             const uint32_t frequency)
 135:../Libraries/XMCLib/src/xmc_dac.c **** {
 634              	 .loc 2 135 0
 635              	 .cfi_startproc
 636              	 
 637              	 
 638 0000 80B5     	 push {r7,lr}
 639              	.LCFI62:
 640              	 .cfi_def_cfa_offset 8
 641              	 .cfi_offset 7,-8
 642              	 .cfi_offset 14,-4
 643 0002 86B0     	 sub sp,sp,#24
 644              	.LCFI63:
 645              	 .cfi_def_cfa_offset 32
 646 0004 00AF     	 add r7,sp,#0
 647              	.LCFI64:
 648              	 .cfi_def_cfa_register 7
 649 0006 F860     	 str r0,[r7,#12]
 650 0008 0B46     	 mov r3,r1
 651 000a 7A60     	 str r2,[r7,#4]
 652 000c FB72     	 strb r3,[r7,#11]
 136:../Libraries/XMCLib/src/xmc_dac.c ****   uint32_t divider;
 137:../Libraries/XMCLib/src/xmc_dac.c ****   XMC_DAC_CH_STATUS_t status;
 138:../Libraries/XMCLib/src/xmc_dac.c **** 
 139:../Libraries/XMCLib/src/xmc_dac.c ****   XMC_ASSERT("XMC_DAC_CH_SetFrequency: frequency must be greater than zero", frequency > 0U);
 140:../Libraries/XMCLib/src/xmc_dac.c **** 
 141:../Libraries/XMCLib/src/xmc_dac.c ****   divider = XMC_SCU_CLOCK_GetPeripheralClockFrequency() / frequency;
 653              	 .loc 2 141 0
 654 000e FFF7FEFF 	 bl XMC_SCU_CLOCK_GetPeripheralClockFrequency
 655 0012 0246     	 mov r2,r0
 656 0014 7B68     	 ldr r3,[r7,#4]
 657 0016 B2FBF3F3 	 udiv r3,r2,r3
 658 001a 3B61     	 str r3,[r7,#16]
 142:../Libraries/XMCLib/src/xmc_dac.c **** 
 143:../Libraries/XMCLib/src/xmc_dac.c ****   if (divider < XMC_DAC_MIN_FREQ_DIVIDER)
 659              	 .loc 2 143 0
 660 001c 3B69     	 ldr r3,[r7,#16]
 661 001e 0F2B     	 cmp r3,#15
 662 0020 02D8     	 bhi .L23
 144:../Libraries/XMCLib/src/xmc_dac.c ****   {
 145:../Libraries/XMCLib/src/xmc_dac.c ****     status = XMC_DAC_CH_STATUS_ERROR_FREQ2HIGH;
 663              	 .loc 2 145 0
 664 0022 0423     	 movs r3,#4
 665 0024 FB75     	 strb r3,[r7,#23]
 666 0026 16E0     	 b .L24
 667              	.L23:
 146:../Libraries/XMCLib/src/xmc_dac.c ****   }
 147:../Libraries/XMCLib/src/xmc_dac.c ****   else if (divider >= XMC_DAC_MAX_FREQ_DIVIDER)
 668              	 .loc 2 147 0
 669 0028 3B69     	 ldr r3,[r7,#16]
 670 002a B3F5801F 	 cmp r3,#1048576
 671 002e 02D3     	 bcc .L25
 148:../Libraries/XMCLib/src/xmc_dac.c ****   {
 149:../Libraries/XMCLib/src/xmc_dac.c ****     status = XMC_DAC_CH_STATUS_ERROR_FREQ2LOW;
 672              	 .loc 2 149 0
 673 0030 0323     	 movs r3,#3
 674 0032 FB75     	 strb r3,[r7,#23]
 675 0034 0FE0     	 b .L24
 676              	.L25:
 150:../Libraries/XMCLib/src/xmc_dac.c ****   }
 151:../Libraries/XMCLib/src/xmc_dac.c ****   else {
 152:../Libraries/XMCLib/src/xmc_dac.c ****     dac->DACCFG[channel].low = (dac->DACCFG[channel].low & (uint32_t)(~DAC_DAC0CFG0_FREQ_Msk)) |
 677              	 .loc 2 152 0
 678 0036 F87A     	 ldrb r0,[r7,#11]
 679 0038 FB7A     	 ldrb r3,[r7,#11]
 680 003a FA68     	 ldr r2,[r7,#12]
 681 003c DB00     	 lsls r3,r3,#3
 682 003e 1344     	 add r3,r3,r2
 683 0040 5B68     	 ldr r3,[r3,#4]
 684 0042 1B0D     	 lsrs r3,r3,#20
 685 0044 1B05     	 lsls r3,r3,#20
 686 0046 3A69     	 ldr r2,[r7,#16]
 687 0048 1A43     	 orrs r2,r2,r3
 688 004a F968     	 ldr r1,[r7,#12]
 689 004c C300     	 lsls r3,r0,#3
 690 004e 0B44     	 add r3,r3,r1
 691 0050 5A60     	 str r2,[r3,#4]
 153:../Libraries/XMCLib/src/xmc_dac.c ****                                (divider << DAC_DAC0CFG0_FREQ_Pos);
 154:../Libraries/XMCLib/src/xmc_dac.c ****     status = XMC_DAC_CH_STATUS_OK;
 692              	 .loc 2 154 0
 693 0052 0023     	 movs r3,#0
 694 0054 FB75     	 strb r3,[r7,#23]
 695              	.L24:
 155:../Libraries/XMCLib/src/xmc_dac.c ****   }
 156:../Libraries/XMCLib/src/xmc_dac.c **** 
 157:../Libraries/XMCLib/src/xmc_dac.c ****   return status;
 696              	 .loc 2 157 0
 697 0056 FB7D     	 ldrb r3,[r7,#23]
 158:../Libraries/XMCLib/src/xmc_dac.c **** }
 698              	 .loc 2 158 0
 699 0058 1846     	 mov r0,r3
 700 005a 1837     	 adds r7,r7,#24
 701              	.LCFI65:
 702              	 .cfi_def_cfa_offset 8
 703 005c BD46     	 mov sp,r7
 704              	.LCFI66:
 705              	 .cfi_def_cfa_register 13
 706              	 
 707 005e 80BD     	 pop {r7,pc}
 708              	 .cfi_endproc
 709              	.LFE209:
 711              	 .section .text.XMC_DAC_CH_SetRampFrequency,"ax",%progbits
 712              	 .align 2
 713              	 .global XMC_DAC_CH_SetRampFrequency
 714              	 .thumb
 715              	 .thumb_func
 717              	XMC_DAC_CH_SetRampFrequency:
 718              	.LFB210:
 159:../Libraries/XMCLib/src/xmc_dac.c **** 
 160:../Libraries/XMCLib/src/xmc_dac.c **** /* API to set the waveform frequency in Ramp Mode. */
 161:../Libraries/XMCLib/src/xmc_dac.c **** XMC_DAC_CH_STATUS_t XMC_DAC_CH_SetRampFrequency(XMC_DAC_t *const dac,
 162:../Libraries/XMCLib/src/xmc_dac.c ****                                                 const uint8_t channel,
 163:../Libraries/XMCLib/src/xmc_dac.c ****                                                 const uint32_t frequency)
 164:../Libraries/XMCLib/src/xmc_dac.c **** {
 719              	 .loc 2 164 0
 720              	 .cfi_startproc
 721              	 
 722              	 
 723 0000 80B5     	 push {r7,lr}
 724              	.LCFI67:
 725              	 .cfi_def_cfa_offset 8
 726              	 .cfi_offset 7,-8
 727              	 .cfi_offset 14,-4
 728 0002 86B0     	 sub sp,sp,#24
 729              	.LCFI68:
 730              	 .cfi_def_cfa_offset 32
 731 0004 00AF     	 add r7,sp,#0
 732              	.LCFI69:
 733              	 .cfi_def_cfa_register 7
 734 0006 F860     	 str r0,[r7,#12]
 735 0008 0B46     	 mov r3,r1
 736 000a 7A60     	 str r2,[r7,#4]
 737 000c FB72     	 strb r3,[r7,#11]
 165:../Libraries/XMCLib/src/xmc_dac.c ****   uint32_t stop;
 166:../Libraries/XMCLib/src/xmc_dac.c ****   uint32_t start;
 167:../Libraries/XMCLib/src/xmc_dac.c **** 
 168:../Libraries/XMCLib/src/xmc_dac.c ****   start = dac->DACDATA[channel];
 738              	 .loc 2 168 0
 739 000e FB7A     	 ldrb r3,[r7,#11]
 740 0010 FA68     	 ldr r2,[r7,#12]
 741 0012 0433     	 adds r3,r3,#4
 742 0014 9B00     	 lsls r3,r3,#2
 743 0016 1344     	 add r3,r3,r2
 744 0018 5B68     	 ldr r3,[r3,#4]
 745 001a 7B61     	 str r3,[r7,#20]
 169:../Libraries/XMCLib/src/xmc_dac.c ****   stop = (dac->DAC01DATA >> (channel * DAC_DAC01DATA_DATA1_Pos)) & (uint32_t)DAC_DAC01DATA_DATA0_Ms
 746              	 .loc 2 169 0
 747 001c FB68     	 ldr r3,[r7,#12]
 748 001e DB69     	 ldr r3,[r3,#28]
 749 0020 FA7A     	 ldrb r2,[r7,#11]
 750 0022 1201     	 lsls r2,r2,#4
 751 0024 D340     	 lsrs r3,r3,r2
 752 0026 C3F30B03 	 ubfx r3,r3,#0,#12
 753 002a 3B61     	 str r3,[r7,#16]
 170:../Libraries/XMCLib/src/xmc_dac.c **** 
 171:../Libraries/XMCLib/src/xmc_dac.c ****   return XMC_DAC_CH_SetFrequency(dac, channel, frequency * ((stop - start) + 1U));
 754              	 .loc 2 171 0
 755 002c 3A69     	 ldr r2,[r7,#16]
 756 002e 7B69     	 ldr r3,[r7,#20]
 757 0030 D31A     	 subs r3,r2,r3
 758 0032 0133     	 adds r3,r3,#1
 759 0034 7A68     	 ldr r2,[r7,#4]
 760 0036 02FB03F3 	 mul r3,r2,r3
 761 003a FA7A     	 ldrb r2,[r7,#11]
 762 003c F868     	 ldr r0,[r7,#12]
 763 003e 1146     	 mov r1,r2
 764 0040 1A46     	 mov r2,r3
 765 0042 FFF7FEFF 	 bl XMC_DAC_CH_SetFrequency
 766 0046 0346     	 mov r3,r0
 172:../Libraries/XMCLib/src/xmc_dac.c **** }
 767              	 .loc 2 172 0
 768 0048 1846     	 mov r0,r3
 769 004a 1837     	 adds r7,r7,#24
 770              	.LCFI70:
 771              	 .cfi_def_cfa_offset 8
 772 004c BD46     	 mov sp,r7
 773              	.LCFI71:
 774              	 .cfi_def_cfa_register 13
 775              	 
 776 004e 80BD     	 pop {r7,pc}
 777              	 .cfi_endproc
 778              	.LFE210:
 780              	 .section .text.XMC_DAC_CH_StartSingleValueMode,"ax",%progbits
 781              	 .align 2
 782              	 .global XMC_DAC_CH_StartSingleValueMode
 783              	 .thumb
 784              	 .thumb_func
 786              	XMC_DAC_CH_StartSingleValueMode:
 787              	.LFB211:
 173:../Libraries/XMCLib/src/xmc_dac.c **** 
 174:../Libraries/XMCLib/src/xmc_dac.c **** /* API to start the operation in Single Value Mode. */
 175:../Libraries/XMCLib/src/xmc_dac.c **** XMC_DAC_CH_STATUS_t XMC_DAC_CH_StartSingleValueMode(XMC_DAC_t *const dac, const uint8_t channel)
 176:../Libraries/XMCLib/src/xmc_dac.c **** {
 788              	 .loc 2 176 0
 789              	 .cfi_startproc
 790              	 
 791              	 
 792 0000 80B5     	 push {r7,lr}
 793              	.LCFI72:
 794              	 .cfi_def_cfa_offset 8
 795              	 .cfi_offset 7,-8
 796              	 .cfi_offset 14,-4
 797 0002 82B0     	 sub sp,sp,#8
 798              	.LCFI73:
 799              	 .cfi_def_cfa_offset 16
 800 0004 00AF     	 add r7,sp,#0
 801              	.LCFI74:
 802              	 .cfi_def_cfa_register 7
 803 0006 7860     	 str r0,[r7,#4]
 804 0008 0B46     	 mov r3,r1
 805 000a FB70     	 strb r3,[r7,#3]
 177:../Libraries/XMCLib/src/xmc_dac.c ****   XMC_ASSERT("XMC_DAC_CH_StartSingleValueMode: dac parameter not valid\n", XMC_DAC_IS_DAC_VALID(dac
 178:../Libraries/XMCLib/src/xmc_dac.c ****   XMC_ASSERT("XMC_DAC_CH_StartSingleValueMode: channel parameter not valid\n", XMC_DAC_IS_CHANNEL_V
 179:../Libraries/XMCLib/src/xmc_dac.c ****   XMC_ASSERT("XMC_DAC_CH_StartSingleValueMode: dac module not enabled\n", XMC_DAC_IsEnabled(dac));
 180:../Libraries/XMCLib/src/xmc_dac.c **** 
 181:../Libraries/XMCLib/src/xmc_dac.c ****   XMC_DAC_CH_SetMode(dac, channel, XMC_DAC_CH_MODE_SINGLE);
 806              	 .loc 2 181 0
 807 000c FB78     	 ldrb r3,[r7,#3]
 808 000e 7868     	 ldr r0,[r7,#4]
 809 0010 1946     	 mov r1,r3
 810 0012 4FF48012 	 mov r2,#1048576
 811 0016 FFF7FEFF 	 bl XMC_DAC_CH_SetMode
 182:../Libraries/XMCLib/src/xmc_dac.c **** 
 183:../Libraries/XMCLib/src/xmc_dac.c ****   return XMC_DAC_CH_STATUS_OK;
 812              	 .loc 2 183 0
 813 001a 0023     	 movs r3,#0
 184:../Libraries/XMCLib/src/xmc_dac.c **** }
 814              	 .loc 2 184 0
 815 001c 1846     	 mov r0,r3
 816 001e 0837     	 adds r7,r7,#8
 817              	.LCFI75:
 818              	 .cfi_def_cfa_offset 8
 819 0020 BD46     	 mov sp,r7
 820              	.LCFI76:
 821              	 .cfi_def_cfa_register 13
 822              	 
 823 0022 80BD     	 pop {r7,pc}
 824              	 .cfi_endproc
 825              	.LFE211:
 827              	 .section .text.XMC_DAC_CH_StartDataMode,"ax",%progbits
 828              	 .align 2
 829              	 .global XMC_DAC_CH_StartDataMode
 830              	 .thumb
 831              	 .thumb_func
 833              	XMC_DAC_CH_StartDataMode:
 834              	.LFB212:
 185:../Libraries/XMCLib/src/xmc_dac.c **** 
 186:../Libraries/XMCLib/src/xmc_dac.c **** /* API to start the operation in Data Mode. */
 187:../Libraries/XMCLib/src/xmc_dac.c **** XMC_DAC_CH_STATUS_t XMC_DAC_CH_StartDataMode(XMC_DAC_t *const dac,
 188:../Libraries/XMCLib/src/xmc_dac.c ****                                              const uint8_t channel,
 189:../Libraries/XMCLib/src/xmc_dac.c ****                                              const XMC_DAC_CH_TRIGGER_t trigger,
 190:../Libraries/XMCLib/src/xmc_dac.c ****                                              const uint32_t frequency)
 191:../Libraries/XMCLib/src/xmc_dac.c **** {
 835              	 .loc 2 191 0
 836              	 .cfi_startproc
 837              	 
 838              	 
 839 0000 80B5     	 push {r7,lr}
 840              	.LCFI77:
 841              	 .cfi_def_cfa_offset 8
 842              	 .cfi_offset 7,-8
 843              	 .cfi_offset 14,-4
 844 0002 86B0     	 sub sp,sp,#24
 845              	.LCFI78:
 846              	 .cfi_def_cfa_offset 32
 847 0004 00AF     	 add r7,sp,#0
 848              	.LCFI79:
 849              	 .cfi_def_cfa_register 7
 850 0006 F860     	 str r0,[r7,#12]
 851 0008 7A60     	 str r2,[r7,#4]
 852 000a 3B60     	 str r3,[r7]
 853 000c 0B46     	 mov r3,r1
 854 000e FB72     	 strb r3,[r7,#11]
 192:../Libraries/XMCLib/src/xmc_dac.c ****   XMC_DAC_CH_STATUS_t status = XMC_DAC_CH_STATUS_OK;
 855              	 .loc 2 192 0
 856 0010 0023     	 movs r3,#0
 857 0012 FB75     	 strb r3,[r7,#23]
 193:../Libraries/XMCLib/src/xmc_dac.c **** 
 194:../Libraries/XMCLib/src/xmc_dac.c ****   XMC_ASSERT("XMC_DAC_CH_StartDataMode: dac parameter not valid\n", XMC_DAC_IS_DAC_VALID(dac));
 195:../Libraries/XMCLib/src/xmc_dac.c ****   XMC_ASSERT("XMC_DAC_CH_StartDataMode: channel parameter not valid\n", XMC_DAC_IS_CHANNEL_VALID(ch
 196:../Libraries/XMCLib/src/xmc_dac.c ****   XMC_ASSERT("XMC_DAC_CH_StartDataMode: dac module not enabled\n", XMC_DAC_IsEnabled(dac));
 197:../Libraries/XMCLib/src/xmc_dac.c **** 
 198:../Libraries/XMCLib/src/xmc_dac.c ****   XMC_DAC_CH_SetMode(dac, channel, XMC_DAC_CH_MODE_IDLE);
 858              	 .loc 2 198 0
 859 0014 FB7A     	 ldrb r3,[r7,#11]
 860 0016 F868     	 ldr r0,[r7,#12]
 861 0018 1946     	 mov r1,r3
 862 001a 0022     	 movs r2,#0
 863 001c FFF7FEFF 	 bl XMC_DAC_CH_SetMode
 199:../Libraries/XMCLib/src/xmc_dac.c **** 
 200:../Libraries/XMCLib/src/xmc_dac.c ****   if (trigger == XMC_DAC_CH_TRIGGER_INTERNAL)
 864              	 .loc 2 200 0
 865 0020 7B68     	 ldr r3,[r7,#4]
 866 0022 002B     	 cmp r3,#0
 867 0024 07D1     	 bne .L32
 201:../Libraries/XMCLib/src/xmc_dac.c ****   {
 202:../Libraries/XMCLib/src/xmc_dac.c ****     status = XMC_DAC_CH_SetFrequency(dac, channel, frequency);
 868              	 .loc 2 202 0
 869 0026 FB7A     	 ldrb r3,[r7,#11]
 870 0028 F868     	 ldr r0,[r7,#12]
 871 002a 1946     	 mov r1,r3
 872 002c 3A68     	 ldr r2,[r7]
 873 002e FFF7FEFF 	 bl XMC_DAC_CH_SetFrequency
 874 0032 0346     	 mov r3,r0
 875 0034 FB75     	 strb r3,[r7,#23]
 876              	.L32:
 203:../Libraries/XMCLib/src/xmc_dac.c ****   }
 204:../Libraries/XMCLib/src/xmc_dac.c **** 
 205:../Libraries/XMCLib/src/xmc_dac.c ****   if (status == XMC_DAC_CH_STATUS_OK)
 877              	 .loc 2 205 0
 878 0036 FB7D     	 ldrb r3,[r7,#23]
 879 0038 002B     	 cmp r3,#0
 880 003a 0CD1     	 bne .L33
 206:../Libraries/XMCLib/src/xmc_dac.c ****   {
 207:../Libraries/XMCLib/src/xmc_dac.c ****     XMC_DAC_CH_SetTrigger(dac, channel, trigger);
 881              	 .loc 2 207 0
 882 003c FB7A     	 ldrb r3,[r7,#11]
 883 003e F868     	 ldr r0,[r7,#12]
 884 0040 1946     	 mov r1,r3
 885 0042 7A68     	 ldr r2,[r7,#4]
 886 0044 FFF7FEFF 	 bl XMC_DAC_CH_SetTrigger
 208:../Libraries/XMCLib/src/xmc_dac.c ****     XMC_DAC_CH_SetMode(dac, channel, XMC_DAC_CH_MODE_DATA);
 887              	 .loc 2 208 0
 888 0048 FB7A     	 ldrb r3,[r7,#11]
 889 004a F868     	 ldr r0,[r7,#12]
 890 004c 1946     	 mov r1,r3
 891 004e 4FF40012 	 mov r2,#2097152
 892 0052 FFF7FEFF 	 bl XMC_DAC_CH_SetMode
 893              	.L33:
 209:../Libraries/XMCLib/src/xmc_dac.c ****   }
 210:../Libraries/XMCLib/src/xmc_dac.c **** 
 211:../Libraries/XMCLib/src/xmc_dac.c ****   return status;
 894              	 .loc 2 211 0
 895 0056 FB7D     	 ldrb r3,[r7,#23]
 212:../Libraries/XMCLib/src/xmc_dac.c **** }
 896              	 .loc 2 212 0
 897 0058 1846     	 mov r0,r3
 898 005a 1837     	 adds r7,r7,#24
 899              	.LCFI80:
 900              	 .cfi_def_cfa_offset 8
 901 005c BD46     	 mov sp,r7
 902              	.LCFI81:
 903              	 .cfi_def_cfa_register 13
 904              	 
 905 005e 80BD     	 pop {r7,pc}
 906              	 .cfi_endproc
 907              	.LFE212:
 909              	 .section .text.XMC_DAC_CH_StartRampMode,"ax",%progbits
 910              	 .align 2
 911              	 .global XMC_DAC_CH_StartRampMode
 912              	 .thumb
 913              	 .thumb_func
 915              	XMC_DAC_CH_StartRampMode:
 916              	.LFB213:
 213:../Libraries/XMCLib/src/xmc_dac.c **** 
 214:../Libraries/XMCLib/src/xmc_dac.c **** /* API to start the operation in Ramp Mode. */
 215:../Libraries/XMCLib/src/xmc_dac.c **** XMC_DAC_CH_STATUS_t XMC_DAC_CH_StartRampMode(XMC_DAC_t *const dac,
 216:../Libraries/XMCLib/src/xmc_dac.c ****                                              const uint8_t channel,
 217:../Libraries/XMCLib/src/xmc_dac.c ****                                              const uint16_t start,
 218:../Libraries/XMCLib/src/xmc_dac.c ****                                              const uint16_t stop,
 219:../Libraries/XMCLib/src/xmc_dac.c ****                                              const XMC_DAC_CH_TRIGGER_t trigger,
 220:../Libraries/XMCLib/src/xmc_dac.c ****                                              const uint32_t frequency)
 221:../Libraries/XMCLib/src/xmc_dac.c **** {
 917              	 .loc 2 221 0
 918              	 .cfi_startproc
 919              	 
 920              	 
 921 0000 80B5     	 push {r7,lr}
 922              	.LCFI82:
 923              	 .cfi_def_cfa_offset 8
 924              	 .cfi_offset 7,-8
 925              	 .cfi_offset 14,-4
 926 0002 86B0     	 sub sp,sp,#24
 927              	.LCFI83:
 928              	 .cfi_def_cfa_offset 32
 929 0004 00AF     	 add r7,sp,#0
 930              	.LCFI84:
 931              	 .cfi_def_cfa_register 7
 932 0006 F860     	 str r0,[r7,#12]
 933 0008 0846     	 mov r0,r1
 934 000a 1146     	 mov r1,r2
 935 000c 1A46     	 mov r2,r3
 936 000e 0346     	 mov r3,r0
 937 0010 FB72     	 strb r3,[r7,#11]
 938 0012 0B46     	 mov r3,r1
 939 0014 3B81     	 strh r3,[r7,#8]
 940 0016 1346     	 mov r3,r2
 941 0018 FB80     	 strh r3,[r7,#6]
 222:../Libraries/XMCLib/src/xmc_dac.c ****   XMC_DAC_CH_STATUS_t status = XMC_DAC_CH_STATUS_OK;
 942              	 .loc 2 222 0
 943 001a 0023     	 movs r3,#0
 944 001c FB75     	 strb r3,[r7,#23]
 223:../Libraries/XMCLib/src/xmc_dac.c **** 
 224:../Libraries/XMCLib/src/xmc_dac.c ****   XMC_ASSERT("XMC_DAC_CH_StartRampMode: dac parameter not valid\n", XMC_DAC_IS_DAC_VALID(dac));
 225:../Libraries/XMCLib/src/xmc_dac.c ****   XMC_ASSERT("XMC_DAC_CH_StartRampMode: channel parameter not valid\n", XMC_DAC_IS_CHANNEL_VALID(ch
 226:../Libraries/XMCLib/src/xmc_dac.c ****   XMC_ASSERT("XMC_DAC_CH_StartRampMode: dac module not enabled\n", XMC_DAC_IsEnabled(dac));
 227:../Libraries/XMCLib/src/xmc_dac.c **** 
 228:../Libraries/XMCLib/src/xmc_dac.c ****   XMC_DAC_CH_SetMode(dac, channel, XMC_DAC_CH_MODE_IDLE);
 945              	 .loc 2 228 0
 946 001e FB7A     	 ldrb r3,[r7,#11]
 947 0020 F868     	 ldr r0,[r7,#12]
 948 0022 1946     	 mov r1,r3
 949 0024 0022     	 movs r2,#0
 950 0026 FFF7FEFF 	 bl XMC_DAC_CH_SetMode
 229:../Libraries/XMCLib/src/xmc_dac.c **** 
 230:../Libraries/XMCLib/src/xmc_dac.c ****   XMC_DAC_CH_SetRampStart(dac, channel, start);
 951              	 .loc 2 230 0
 952 002a FA7A     	 ldrb r2,[r7,#11]
 953 002c 3B89     	 ldrh r3,[r7,#8]
 954 002e F868     	 ldr r0,[r7,#12]
 955 0030 1146     	 mov r1,r2
 956 0032 1A46     	 mov r2,r3
 957 0034 FFF7FEFF 	 bl XMC_DAC_CH_SetRampStart
 231:../Libraries/XMCLib/src/xmc_dac.c ****   XMC_DAC_CH_SetRampStop(dac, channel, stop);
 958              	 .loc 2 231 0
 959 0038 FA7A     	 ldrb r2,[r7,#11]
 960 003a FB88     	 ldrh r3,[r7,#6]
 961 003c F868     	 ldr r0,[r7,#12]
 962 003e 1146     	 mov r1,r2
 963 0040 1A46     	 mov r2,r3
 964 0042 FFF7FEFF 	 bl XMC_DAC_CH_SetRampStop
 232:../Libraries/XMCLib/src/xmc_dac.c ****   XMC_DAC_CH_SetTrigger(dac, channel, trigger);
 965              	 .loc 2 232 0
 966 0046 FB7A     	 ldrb r3,[r7,#11]
 967 0048 F868     	 ldr r0,[r7,#12]
 968 004a 1946     	 mov r1,r3
 969 004c 3A6A     	 ldr r2,[r7,#32]
 970 004e FFF7FEFF 	 bl XMC_DAC_CH_SetTrigger
 233:../Libraries/XMCLib/src/xmc_dac.c **** 
 234:../Libraries/XMCLib/src/xmc_dac.c ****   if (trigger == XMC_DAC_CH_TRIGGER_INTERNAL)
 971              	 .loc 2 234 0
 972 0052 3B6A     	 ldr r3,[r7,#32]
 973 0054 002B     	 cmp r3,#0
 974 0056 07D1     	 bne .L36
 235:../Libraries/XMCLib/src/xmc_dac.c ****   {
 236:../Libraries/XMCLib/src/xmc_dac.c ****     status = XMC_DAC_CH_SetRampFrequency(dac, channel, frequency);
 975              	 .loc 2 236 0
 976 0058 FB7A     	 ldrb r3,[r7,#11]
 977 005a F868     	 ldr r0,[r7,#12]
 978 005c 1946     	 mov r1,r3
 979 005e 7A6A     	 ldr r2,[r7,#36]
 980 0060 FFF7FEFF 	 bl XMC_DAC_CH_SetRampFrequency
 981 0064 0346     	 mov r3,r0
 982 0066 FB75     	 strb r3,[r7,#23]
 983              	.L36:
 237:../Libraries/XMCLib/src/xmc_dac.c ****   }
 238:../Libraries/XMCLib/src/xmc_dac.c **** 
 239:../Libraries/XMCLib/src/xmc_dac.c ****   if (status == XMC_DAC_CH_STATUS_OK)
 984              	 .loc 2 239 0
 985 0068 FB7D     	 ldrb r3,[r7,#23]
 986 006a 002B     	 cmp r3,#0
 987 006c 06D1     	 bne .L37
 240:../Libraries/XMCLib/src/xmc_dac.c ****   {
 241:../Libraries/XMCLib/src/xmc_dac.c ****     XMC_DAC_CH_SetMode(dac, channel, XMC_DAC_CH_MODE_RAMP);
 988              	 .loc 2 241 0
 989 006e FB7A     	 ldrb r3,[r7,#11]
 990 0070 F868     	 ldr r0,[r7,#12]
 991 0072 1946     	 mov r1,r3
 992 0074 4FF4A002 	 mov r2,#5242880
 993 0078 FFF7FEFF 	 bl XMC_DAC_CH_SetMode
 994              	.L37:
 242:../Libraries/XMCLib/src/xmc_dac.c ****   }
 243:../Libraries/XMCLib/src/xmc_dac.c **** 
 244:../Libraries/XMCLib/src/xmc_dac.c ****   return status;
 995              	 .loc 2 244 0
 996 007c FB7D     	 ldrb r3,[r7,#23]
 245:../Libraries/XMCLib/src/xmc_dac.c **** }
 997              	 .loc 2 245 0
 998 007e 1846     	 mov r0,r3
 999 0080 1837     	 adds r7,r7,#24
 1000              	.LCFI85:
 1001              	 .cfi_def_cfa_offset 8
 1002 0082 BD46     	 mov sp,r7
 1003              	.LCFI86:
 1004              	 .cfi_def_cfa_register 13
 1005              	 
 1006 0084 80BD     	 pop {r7,pc}
 1007              	 .cfi_endproc
 1008              	.LFE213:
 1010 0086 00BF     	 .section .text.XMC_DAC_CH_StartPatternMode,"ax",%progbits
 1011              	 .align 2
 1012              	 .global XMC_DAC_CH_StartPatternMode
 1013              	 .thumb
 1014              	 .thumb_func
 1016              	XMC_DAC_CH_StartPatternMode:
 1017              	.LFB214:
 246:../Libraries/XMCLib/src/xmc_dac.c **** 
 247:../Libraries/XMCLib/src/xmc_dac.c **** /* API to start the operation in Pattern Mode. */
 248:../Libraries/XMCLib/src/xmc_dac.c **** XMC_DAC_CH_STATUS_t XMC_DAC_CH_StartPatternMode(XMC_DAC_t *const dac,
 249:../Libraries/XMCLib/src/xmc_dac.c ****                                                 const uint8_t channel,
 250:../Libraries/XMCLib/src/xmc_dac.c ****                                                 const uint8_t *const pattern,
 251:../Libraries/XMCLib/src/xmc_dac.c ****                                                 const XMC_DAC_CH_PATTERN_SIGN_OUTPUT_t sign_output,
 252:../Libraries/XMCLib/src/xmc_dac.c ****                                                 const XMC_DAC_CH_TRIGGER_t trigger,
 253:../Libraries/XMCLib/src/xmc_dac.c ****                                                 const uint32_t frequency)
 254:../Libraries/XMCLib/src/xmc_dac.c **** {
 1018              	 .loc 2 254 0
 1019              	 .cfi_startproc
 1020              	 
 1021              	 
 1022 0000 80B5     	 push {r7,lr}
 1023              	.LCFI87:
 1024              	 .cfi_def_cfa_offset 8
 1025              	 .cfi_offset 7,-8
 1026              	 .cfi_offset 14,-4
 1027 0002 86B0     	 sub sp,sp,#24
 1028              	.LCFI88:
 1029              	 .cfi_def_cfa_offset 32
 1030 0004 00AF     	 add r7,sp,#0
 1031              	.LCFI89:
 1032              	 .cfi_def_cfa_register 7
 1033 0006 F860     	 str r0,[r7,#12]
 1034 0008 7A60     	 str r2,[r7,#4]
 1035 000a 1A46     	 mov r2,r3
 1036 000c 0B46     	 mov r3,r1
 1037 000e FB72     	 strb r3,[r7,#11]
 1038 0010 1346     	 mov r3,r2
 1039 0012 BB72     	 strb r3,[r7,#10]
 255:../Libraries/XMCLib/src/xmc_dac.c ****   XMC_DAC_CH_STATUS_t status = XMC_DAC_CH_STATUS_OK;
 1040              	 .loc 2 255 0
 1041 0014 0023     	 movs r3,#0
 1042 0016 FB75     	 strb r3,[r7,#23]
 256:../Libraries/XMCLib/src/xmc_dac.c **** 
 257:../Libraries/XMCLib/src/xmc_dac.c ****   XMC_ASSERT("XMC_DAC_CH_StartPatternMode: dac parameter not valid\n", XMC_DAC_IS_DAC_VALID(dac));
 258:../Libraries/XMCLib/src/xmc_dac.c ****   XMC_ASSERT("XMC_DAC_CH_StartPatternMode: channel parameter not valid\n", XMC_DAC_IS_CHANNEL_VALID
 259:../Libraries/XMCLib/src/xmc_dac.c ****   XMC_ASSERT("XMC_DAC_CH_StartPatternMode: dac module not enabled\n", XMC_DAC_IsEnabled(dac));
 260:../Libraries/XMCLib/src/xmc_dac.c **** 
 261:../Libraries/XMCLib/src/xmc_dac.c ****   XMC_DAC_CH_SetMode(dac, channel, XMC_DAC_CH_MODE_IDLE);
 1043              	 .loc 2 261 0
 1044 0018 FB7A     	 ldrb r3,[r7,#11]
 1045 001a F868     	 ldr r0,[r7,#12]
 1046 001c 1946     	 mov r1,r3
 1047 001e 0022     	 movs r2,#0
 1048 0020 FFF7FEFF 	 bl XMC_DAC_CH_SetMode
 262:../Libraries/XMCLib/src/xmc_dac.c **** 
 263:../Libraries/XMCLib/src/xmc_dac.c ****   if (trigger == XMC_DAC_CH_TRIGGER_INTERNAL)
 1049              	 .loc 2 263 0
 1050 0024 3B6A     	 ldr r3,[r7,#32]
 1051 0026 002B     	 cmp r3,#0
 1052 0028 09D1     	 bne .L40
 264:../Libraries/XMCLib/src/xmc_dac.c ****   {
 265:../Libraries/XMCLib/src/xmc_dac.c ****     status = XMC_DAC_CH_SetFrequency(dac, channel, frequency * XMC_DAC_SAMPLES_PER_PERIOD);
 1053              	 .loc 2 265 0
 1054 002a 7B6A     	 ldr r3,[r7,#36]
 1055 002c 5B01     	 lsls r3,r3,#5
 1056 002e FA7A     	 ldrb r2,[r7,#11]
 1057 0030 F868     	 ldr r0,[r7,#12]
 1058 0032 1146     	 mov r1,r2
 1059 0034 1A46     	 mov r2,r3
 1060 0036 FFF7FEFF 	 bl XMC_DAC_CH_SetFrequency
 1061 003a 0346     	 mov r3,r0
 1062 003c FB75     	 strb r3,[r7,#23]
 1063              	.L40:
 266:../Libraries/XMCLib/src/xmc_dac.c ****   }
 267:../Libraries/XMCLib/src/xmc_dac.c **** 
 268:../Libraries/XMCLib/src/xmc_dac.c ****   if (status == XMC_DAC_CH_STATUS_OK)
 1064              	 .loc 2 268 0
 1065 003e FB7D     	 ldrb r3,[r7,#23]
 1066 0040 002B     	 cmp r3,#0
 1067 0042 20D1     	 bne .L41
 269:../Libraries/XMCLib/src/xmc_dac.c ****   {
 270:../Libraries/XMCLib/src/xmc_dac.c ****     XMC_DAC_CH_SetPattern(dac, channel, pattern);
 1068              	 .loc 2 270 0
 1069 0044 FB7A     	 ldrb r3,[r7,#11]
 1070 0046 F868     	 ldr r0,[r7,#12]
 1071 0048 1946     	 mov r1,r3
 1072 004a 7A68     	 ldr r2,[r7,#4]
 1073 004c FFF7FEFF 	 bl XMC_DAC_CH_SetPattern
 271:../Libraries/XMCLib/src/xmc_dac.c ****     if (XMC_DAC_CH_PATTERN_SIGN_OUTPUT_ENABLED == sign_output)
 1074              	 .loc 2 271 0
 1075 0050 BB7A     	 ldrb r3,[r7,#10]
 1076 0052 012B     	 cmp r3,#1
 1077 0054 05D1     	 bne .L42
 272:../Libraries/XMCLib/src/xmc_dac.c ****     {
 273:../Libraries/XMCLib/src/xmc_dac.c ****       XMC_DAC_CH_EnablePatternSignOutput(dac, channel);
 1078              	 .loc 2 273 0
 1079 0056 FB7A     	 ldrb r3,[r7,#11]
 1080 0058 F868     	 ldr r0,[r7,#12]
 1081 005a 1946     	 mov r1,r3
 1082 005c FFF7FEFF 	 bl XMC_DAC_CH_EnablePatternSignOutput
 1083 0060 04E0     	 b .L43
 1084              	.L42:
 274:../Libraries/XMCLib/src/xmc_dac.c ****     }
 275:../Libraries/XMCLib/src/xmc_dac.c ****     else
 276:../Libraries/XMCLib/src/xmc_dac.c ****     {
 277:../Libraries/XMCLib/src/xmc_dac.c ****       XMC_DAC_CH_DisablePatternSignOutput(dac, channel);
 1085              	 .loc 2 277 0
 1086 0062 FB7A     	 ldrb r3,[r7,#11]
 1087 0064 F868     	 ldr r0,[r7,#12]
 1088 0066 1946     	 mov r1,r3
 1089 0068 FFF7FEFF 	 bl XMC_DAC_CH_DisablePatternSignOutput
 1090              	.L43:
 278:../Libraries/XMCLib/src/xmc_dac.c ****     }
 279:../Libraries/XMCLib/src/xmc_dac.c ****     XMC_DAC_CH_SetTrigger(dac, channel, trigger);
 1091              	 .loc 2 279 0
 1092 006c FB7A     	 ldrb r3,[r7,#11]
 1093 006e F868     	 ldr r0,[r7,#12]
 1094 0070 1946     	 mov r1,r3
 1095 0072 3A6A     	 ldr r2,[r7,#32]
 1096 0074 FFF7FEFF 	 bl XMC_DAC_CH_SetTrigger
 280:../Libraries/XMCLib/src/xmc_dac.c ****     XMC_DAC_CH_SetMode(dac, channel, XMC_DAC_CH_MODE_PATTERN);
 1097              	 .loc 2 280 0
 1098 0078 FB7A     	 ldrb r3,[r7,#11]
 1099 007a F868     	 ldr r0,[r7,#12]
 1100 007c 1946     	 mov r1,r3
 1101 007e 4FF44012 	 mov r2,#3145728
 1102 0082 FFF7FEFF 	 bl XMC_DAC_CH_SetMode
 1103              	.L41:
 281:../Libraries/XMCLib/src/xmc_dac.c ****   }
 282:../Libraries/XMCLib/src/xmc_dac.c **** 
 283:../Libraries/XMCLib/src/xmc_dac.c ****   return status;
 1104              	 .loc 2 283 0
 1105 0086 FB7D     	 ldrb r3,[r7,#23]
 284:../Libraries/XMCLib/src/xmc_dac.c **** }
 1106              	 .loc 2 284 0
 1107 0088 1846     	 mov r0,r3
 1108 008a 1837     	 adds r7,r7,#24
 1109              	.LCFI90:
 1110              	 .cfi_def_cfa_offset 8
 1111 008c BD46     	 mov sp,r7
 1112              	.LCFI91:
 1113              	 .cfi_def_cfa_register 13
 1114              	 
 1115 008e 80BD     	 pop {r7,pc}
 1116              	 .cfi_endproc
 1117              	.LFE214:
 1119              	 .section .text.XMC_DAC_CH_StartNoiseMode,"ax",%progbits
 1120              	 .align 2
 1121              	 .global XMC_DAC_CH_StartNoiseMode
 1122              	 .thumb
 1123              	 .thumb_func
 1125              	XMC_DAC_CH_StartNoiseMode:
 1126              	.LFB215:
 285:../Libraries/XMCLib/src/xmc_dac.c **** 
 286:../Libraries/XMCLib/src/xmc_dac.c **** /* API to start the operation in Noise Mode. */
 287:../Libraries/XMCLib/src/xmc_dac.c **** XMC_DAC_CH_STATUS_t XMC_DAC_CH_StartNoiseMode(XMC_DAC_t *const dac,
 288:../Libraries/XMCLib/src/xmc_dac.c ****                                               const uint8_t channel,
 289:../Libraries/XMCLib/src/xmc_dac.c ****                                               const XMC_DAC_CH_TRIGGER_t trigger,
 290:../Libraries/XMCLib/src/xmc_dac.c ****                                               const uint32_t frequency)
 291:../Libraries/XMCLib/src/xmc_dac.c **** {
 1127              	 .loc 2 291 0
 1128              	 .cfi_startproc
 1129              	 
 1130              	 
 1131 0000 80B5     	 push {r7,lr}
 1132              	.LCFI92:
 1133              	 .cfi_def_cfa_offset 8
 1134              	 .cfi_offset 7,-8
 1135              	 .cfi_offset 14,-4
 1136 0002 86B0     	 sub sp,sp,#24
 1137              	.LCFI93:
 1138              	 .cfi_def_cfa_offset 32
 1139 0004 00AF     	 add r7,sp,#0
 1140              	.LCFI94:
 1141              	 .cfi_def_cfa_register 7
 1142 0006 F860     	 str r0,[r7,#12]
 1143 0008 7A60     	 str r2,[r7,#4]
 1144 000a 3B60     	 str r3,[r7]
 1145 000c 0B46     	 mov r3,r1
 1146 000e FB72     	 strb r3,[r7,#11]
 292:../Libraries/XMCLib/src/xmc_dac.c ****   XMC_DAC_CH_STATUS_t status = XMC_DAC_CH_STATUS_OK;
 1147              	 .loc 2 292 0
 1148 0010 0023     	 movs r3,#0
 1149 0012 FB75     	 strb r3,[r7,#23]
 293:../Libraries/XMCLib/src/xmc_dac.c **** 
 294:../Libraries/XMCLib/src/xmc_dac.c ****   XMC_ASSERT("XMC_DAC_CH_StartNoiseMode: dac parameter not valid\n", XMC_DAC_IS_DAC_VALID(dac));
 295:../Libraries/XMCLib/src/xmc_dac.c ****   XMC_ASSERT("XMC_DAC_CH_StartNoiseMode: channel parameter not valid\n", XMC_DAC_IS_CHANNEL_VALID(c
 296:../Libraries/XMCLib/src/xmc_dac.c ****   XMC_ASSERT("XMC_DAC_CH_StartNoiseMode: dac module not enabled\n", XMC_DAC_IsEnabled(dac));
 297:../Libraries/XMCLib/src/xmc_dac.c **** 
 298:../Libraries/XMCLib/src/xmc_dac.c ****   XMC_DAC_CH_SetMode(dac, channel, XMC_DAC_CH_MODE_IDLE);
 1150              	 .loc 2 298 0
 1151 0014 FB7A     	 ldrb r3,[r7,#11]
 1152 0016 F868     	 ldr r0,[r7,#12]
 1153 0018 1946     	 mov r1,r3
 1154 001a 0022     	 movs r2,#0
 1155 001c FFF7FEFF 	 bl XMC_DAC_CH_SetMode
 299:../Libraries/XMCLib/src/xmc_dac.c **** 
 300:../Libraries/XMCLib/src/xmc_dac.c ****   if (trigger == XMC_DAC_CH_TRIGGER_INTERNAL)
 1156              	 .loc 2 300 0
 1157 0020 7B68     	 ldr r3,[r7,#4]
 1158 0022 002B     	 cmp r3,#0
 1159 0024 07D1     	 bne .L46
 301:../Libraries/XMCLib/src/xmc_dac.c ****   {
 302:../Libraries/XMCLib/src/xmc_dac.c ****     status = XMC_DAC_CH_SetFrequency(dac, channel, frequency);
 1160              	 .loc 2 302 0
 1161 0026 FB7A     	 ldrb r3,[r7,#11]
 1162 0028 F868     	 ldr r0,[r7,#12]
 1163 002a 1946     	 mov r1,r3
 1164 002c 3A68     	 ldr r2,[r7]
 1165 002e FFF7FEFF 	 bl XMC_DAC_CH_SetFrequency
 1166 0032 0346     	 mov r3,r0
 1167 0034 FB75     	 strb r3,[r7,#23]
 1168              	.L46:
 303:../Libraries/XMCLib/src/xmc_dac.c ****   }
 304:../Libraries/XMCLib/src/xmc_dac.c **** 
 305:../Libraries/XMCLib/src/xmc_dac.c ****   if (status == XMC_DAC_CH_STATUS_OK)
 1169              	 .loc 2 305 0
 1170 0036 FB7D     	 ldrb r3,[r7,#23]
 1171 0038 002B     	 cmp r3,#0
 1172 003a 0CD1     	 bne .L47
 306:../Libraries/XMCLib/src/xmc_dac.c ****   {
 307:../Libraries/XMCLib/src/xmc_dac.c ****     XMC_DAC_CH_SetTrigger(dac, channel, trigger);
 1173              	 .loc 2 307 0
 1174 003c FB7A     	 ldrb r3,[r7,#11]
 1175 003e F868     	 ldr r0,[r7,#12]
 1176 0040 1946     	 mov r1,r3
 1177 0042 7A68     	 ldr r2,[r7,#4]
 1178 0044 FFF7FEFF 	 bl XMC_DAC_CH_SetTrigger
 308:../Libraries/XMCLib/src/xmc_dac.c ****     XMC_DAC_CH_SetMode(dac, channel, XMC_DAC_CH_MODE_NOISE);
 1179              	 .loc 2 308 0
 1180 0048 FB7A     	 ldrb r3,[r7,#11]
 1181 004a F868     	 ldr r0,[r7,#12]
 1182 004c 1946     	 mov r1,r3
 1183 004e 4FF48002 	 mov r2,#4194304
 1184 0052 FFF7FEFF 	 bl XMC_DAC_CH_SetMode
 1185              	.L47:
 309:../Libraries/XMCLib/src/xmc_dac.c ****   }
 310:../Libraries/XMCLib/src/xmc_dac.c **** 
 311:../Libraries/XMCLib/src/xmc_dac.c ****   return status;
 1186              	 .loc 2 311 0
 1187 0056 FB7D     	 ldrb r3,[r7,#23]
 312:../Libraries/XMCLib/src/xmc_dac.c **** }
 1188              	 .loc 2 312 0
 1189 0058 1846     	 mov r0,r3
 1190 005a 1837     	 adds r7,r7,#24
 1191              	.LCFI95:
 1192              	 .cfi_def_cfa_offset 8
 1193 005c BD46     	 mov sp,r7
 1194              	.LCFI96:
 1195              	 .cfi_def_cfa_register 13
 1196              	 
 1197 005e 80BD     	 pop {r7,pc}
 1198              	 .cfi_endproc
 1199              	.LFE215:
 1201              	 .section .text.XMC_DAC_CH_SetPattern,"ax",%progbits
 1202              	 .align 2
 1203              	 .global XMC_DAC_CH_SetPattern
 1204              	 .thumb
 1205              	 .thumb_func
 1207              	XMC_DAC_CH_SetPattern:
 1208              	.LFB216:
 313:../Libraries/XMCLib/src/xmc_dac.c **** 
 314:../Libraries/XMCLib/src/xmc_dac.c **** /* API to write the pattern data table. */
 315:../Libraries/XMCLib/src/xmc_dac.c **** void XMC_DAC_CH_SetPattern(XMC_DAC_t *const dac, uint8_t channel, const uint8_t *const data)
 316:../Libraries/XMCLib/src/xmc_dac.c **** {
 1209              	 .loc 2 316 0
 1210              	 .cfi_startproc
 1211              	 
 1212              	 
 1213              	 
 1214 0000 80B4     	 push {r7}
 1215              	.LCFI97:
 1216              	 .cfi_def_cfa_offset 4
 1217              	 .cfi_offset 7,-4
 1218 0002 87B0     	 sub sp,sp,#28
 1219              	.LCFI98:
 1220              	 .cfi_def_cfa_offset 32
 1221 0004 00AF     	 add r7,sp,#0
 1222              	.LCFI99:
 1223              	 .cfi_def_cfa_register 7
 1224 0006 F860     	 str r0,[r7,#12]
 1225 0008 0B46     	 mov r3,r1
 1226 000a 7A60     	 str r2,[r7,#4]
 1227 000c FB72     	 strb r3,[r7,#11]
 317:../Libraries/XMCLib/src/xmc_dac.c ****   uint32_t index;
 318:../Libraries/XMCLib/src/xmc_dac.c ****   uint32_t temp;
 319:../Libraries/XMCLib/src/xmc_dac.c **** 
 320:../Libraries/XMCLib/src/xmc_dac.c ****   XMC_ASSERT("XMC_DAC_CH_SetPattern: dac parameter not valid\n", XMC_DAC_IS_DAC_VALID(dac));
 321:../Libraries/XMCLib/src/xmc_dac.c ****   XMC_ASSERT("XMC_DAC_CH_SetPattern: channel parameter not valid\n", XMC_DAC_IS_CHANNEL_VALID(chann
 322:../Libraries/XMCLib/src/xmc_dac.c ****   XMC_ASSERT("XMC_DAC_CH_SetPattern: dac module not enabled\n", XMC_DAC_IsEnabled(dac));
 323:../Libraries/XMCLib/src/xmc_dac.c **** 
 324:../Libraries/XMCLib/src/xmc_dac.c ****   temp = data[0U];
 1228              	 .loc 2 324 0
 1229 000e 7B68     	 ldr r3,[r7,#4]
 1230 0010 1B78     	 ldrb r3,[r3]
 1231 0012 3B61     	 str r3,[r7,#16]
 325:../Libraries/XMCLib/src/xmc_dac.c ****   for(index = 1U; index < 6U; ++index)
 1232              	 .loc 2 325 0
 1233 0014 0123     	 movs r3,#1
 1234 0016 7B61     	 str r3,[r7,#20]
 1235 0018 10E0     	 b .L50
 1236              	.L51:
 326:../Libraries/XMCLib/src/xmc_dac.c ****   {
 327:../Libraries/XMCLib/src/xmc_dac.c ****     temp |= (uint32_t)data[index] << (index * XMC_DAC_DAC0PATL_PAT_BITSIZE);
 1237              	 .loc 2 327 0 discriminator 3
 1238 001a 7A68     	 ldr r2,[r7,#4]
 1239 001c 7B69     	 ldr r3,[r7,#20]
 1240 001e 1344     	 add r3,r3,r2
 1241 0020 1B78     	 ldrb r3,[r3]
 1242 0022 1946     	 mov r1,r3
 1243 0024 7A69     	 ldr r2,[r7,#20]
 1244 0026 1346     	 mov r3,r2
 1245 0028 9B00     	 lsls r3,r3,#2
 1246 002a 1344     	 add r3,r3,r2
 1247 002c 01FA03F3 	 lsl r3,r1,r3
 1248 0030 3A69     	 ldr r2,[r7,#16]
 1249 0032 1343     	 orrs r3,r3,r2
 1250 0034 3B61     	 str r3,[r7,#16]
 325:../Libraries/XMCLib/src/xmc_dac.c ****   for(index = 1U; index < 6U; ++index)
 1251              	 .loc 2 325 0 discriminator 3
 1252 0036 7B69     	 ldr r3,[r7,#20]
 1253 0038 0133     	 adds r3,r3,#1
 1254 003a 7B61     	 str r3,[r7,#20]
 1255              	.L50:
 325:../Libraries/XMCLib/src/xmc_dac.c ****   for(index = 1U; index < 6U; ++index)
 1256              	 .loc 2 325 0 is_stmt 0 discriminator 1
 1257 003c 7B69     	 ldr r3,[r7,#20]
 1258 003e 052B     	 cmp r3,#5
 1259 0040 EBD9     	 bls .L51
 328:../Libraries/XMCLib/src/xmc_dac.c ****   }
 329:../Libraries/XMCLib/src/xmc_dac.c ****   dac->DACPAT[channel].low = temp;
 1260              	 .loc 2 329 0 is_stmt 1
 1261 0042 FA7A     	 ldrb r2,[r7,#11]
 1262 0044 FB68     	 ldr r3,[r7,#12]
 1263 0046 0432     	 adds r2,r2,#4
 1264 0048 3969     	 ldr r1,[r7,#16]
 1265 004a 43F83210 	 str r1,[r3,r2,lsl#3]
 330:../Libraries/XMCLib/src/xmc_dac.c **** 
 331:../Libraries/XMCLib/src/xmc_dac.c ****   temp = data[6U];
 1266              	 .loc 2 331 0
 1267 004e 7B68     	 ldr r3,[r7,#4]
 1268 0050 0633     	 adds r3,r3,#6
 1269 0052 1B78     	 ldrb r3,[r3]
 1270 0054 3B61     	 str r3,[r7,#16]
 332:../Libraries/XMCLib/src/xmc_dac.c ****   for(index = 1U; index < 6U; ++index)
 1271              	 .loc 2 332 0
 1272 0056 0123     	 movs r3,#1
 1273 0058 7B61     	 str r3,[r7,#20]
 1274 005a 11E0     	 b .L52
 1275              	.L53:
 333:../Libraries/XMCLib/src/xmc_dac.c ****   {
 334:../Libraries/XMCLib/src/xmc_dac.c ****     temp |= (uint32_t)data[index + 6U] << (index * XMC_DAC_DAC0PATL_PAT_BITSIZE);
 1276              	 .loc 2 334 0 discriminator 3
 1277 005c 7B69     	 ldr r3,[r7,#20]
 1278 005e 0633     	 adds r3,r3,#6
 1279 0060 7A68     	 ldr r2,[r7,#4]
 1280 0062 1344     	 add r3,r3,r2
 1281 0064 1B78     	 ldrb r3,[r3]
 1282 0066 1946     	 mov r1,r3
 1283 0068 7A69     	 ldr r2,[r7,#20]
 1284 006a 1346     	 mov r3,r2
 1285 006c 9B00     	 lsls r3,r3,#2
 1286 006e 1344     	 add r3,r3,r2
 1287 0070 01FA03F3 	 lsl r3,r1,r3
 1288 0074 3A69     	 ldr r2,[r7,#16]
 1289 0076 1343     	 orrs r3,r3,r2
 1290 0078 3B61     	 str r3,[r7,#16]
 332:../Libraries/XMCLib/src/xmc_dac.c ****   for(index = 1U; index < 6U; ++index)
 1291              	 .loc 2 332 0 discriminator 3
 1292 007a 7B69     	 ldr r3,[r7,#20]
 1293 007c 0133     	 adds r3,r3,#1
 1294 007e 7B61     	 str r3,[r7,#20]
 1295              	.L52:
 332:../Libraries/XMCLib/src/xmc_dac.c ****   for(index = 1U; index < 6U; ++index)
 1296              	 .loc 2 332 0 is_stmt 0 discriminator 1
 1297 0080 7B69     	 ldr r3,[r7,#20]
 1298 0082 052B     	 cmp r3,#5
 1299 0084 EAD9     	 bls .L53
 335:../Libraries/XMCLib/src/xmc_dac.c ****   }
 336:../Libraries/XMCLib/src/xmc_dac.c ****   dac->DACPAT[channel].high = temp;
 1300              	 .loc 2 336 0 is_stmt 1
 1301 0086 FB7A     	 ldrb r3,[r7,#11]
 1302 0088 FA68     	 ldr r2,[r7,#12]
 1303 008a 0433     	 adds r3,r3,#4
 1304 008c DB00     	 lsls r3,r3,#3
 1305 008e 1344     	 add r3,r3,r2
 1306 0090 3A69     	 ldr r2,[r7,#16]
 1307 0092 5A60     	 str r2,[r3,#4]
 337:../Libraries/XMCLib/src/xmc_dac.c **** }
 1308              	 .loc 2 337 0
 1309 0094 1C37     	 adds r7,r7,#28
 1310              	.LCFI100:
 1311              	 .cfi_def_cfa_offset 4
 1312 0096 BD46     	 mov sp,r7
 1313              	.LCFI101:
 1314              	 .cfi_def_cfa_register 13
 1315              	 
 1316 0098 5DF8047B 	 ldr r7,[sp],#4
 1317              	.LCFI102:
 1318              	 .cfi_restore 7
 1319              	 .cfi_def_cfa_offset 0
 1320 009c 7047     	 bx lr
 1321              	 .cfi_endproc
 1322              	.LFE216:
 1324 009e 00BF     	 .text
 1325              	.Letext0:
 1326              	 .file 3 "c:\\tools\\dave-ide-4.4.2-64bit\\eclipse\\arm-gcc-49\\arm-none-eabi\\include\\machine\\_default_types.h"
 1327              	 .file 4 "c:\\tools\\dave-ide-4.4.2-64bit\\eclipse\\arm-gcc-49\\arm-none-eabi\\include\\stdint.h"
 1328              	 .file 5 "C:/Users/Admin/DaveWorkspaces/XMC4300_PWMTest/Libraries/XMCLib/inc/xmc4_scu.h"
 1329              	 .file 6 "C:/Users/Admin/DaveWorkspaces/XMC4300_PWMTest/Libraries/CMSIS/Include/cmsis_gcc.h"
 1330              	 .file 7 "C:/Users/Admin/DaveWorkspaces/XMC4300_PWMTest/Libraries/CMSIS/Include/core_cm4.h"
 1331              	 .file 8 "C:/Users/Admin/DaveWorkspaces/XMC4300_PWMTest/Libraries/CMSIS/Infineon/XMC4300_series/Include/system_XMC4300.h"